
/tmp/tmp.Sw7QosbAyQ/bios.elf：     文件格式 elf32-littleriscv


Disassembly of section .text:

00000000 <_start>:
       0:	40008117          	auipc	sp,0x40008
       4:	00010113          	mv	sp,sp
       8:	300002b7          	lui	t0,0x30000
       c:	00028023          	sb	zero,0(t0) # 30000000 <STACK_TOP+0x2fff8000>
      10:	659010ef          	jal	1e68 <main>
      14:	01400293          	li	t0,20
      18:	fff28293          	addi	t0,t0,-1
      1c:	fe029ee3          	bnez	t0,18 <_start+0x18>
      20:	c0001073          	unimp
      24:	0000006f          	j	24 <_start+0x24>

00000028 <print_char>:
      28:	fe010113          	addi	sp,sp,-32 # 40007fe0 <_stack_limit+0x3fe0>
      2c:	00112e23          	sw	ra,28(sp)
      30:	00812c23          	sw	s0,24(sp)
      34:	02010413          	addi	s0,sp,32
      38:	00050793          	mv	a5,a0
      3c:	fef407a3          	sb	a5,-17(s0)
      40:	300007b7          	lui	a5,0x30000
      44:	fef44703          	lbu	a4,-17(s0)
      48:	00e78023          	sb	a4,0(a5) # 30000000 <STACK_TOP+0x2fff8000>
      4c:	00000013          	nop
      50:	01c12083          	lw	ra,28(sp)
      54:	01812403          	lw	s0,24(sp)
      58:	02010113          	addi	sp,sp,32
      5c:	00008067          	ret

00000060 <print_str>:
      60:	fe010113          	addi	sp,sp,-32
      64:	00112e23          	sw	ra,28(sp)
      68:	00812c23          	sw	s0,24(sp)
      6c:	02010413          	addi	s0,sp,32
      70:	fea42623          	sw	a0,-20(s0)
      74:	01c0006f          	j	90 <print_str+0x30>
      78:	fec42783          	lw	a5,-20(s0)
      7c:	00178713          	addi	a4,a5,1
      80:	fee42623          	sw	a4,-20(s0)
      84:	0007c783          	lbu	a5,0(a5)
      88:	00078513          	mv	a0,a5
      8c:	f9dff0ef          	jal	28 <print_char>
      90:	fec42783          	lw	a5,-20(s0)
      94:	0007c783          	lbu	a5,0(a5)
      98:	fe0790e3          	bnez	a5,78 <print_str+0x18>
      9c:	00000013          	nop
      a0:	00000013          	nop
      a4:	01c12083          	lw	ra,28(sp)
      a8:	01812403          	lw	s0,24(sp)
      ac:	02010113          	addi	sp,sp,32
      b0:	00008067          	ret

000000b4 <print_hex>:
      b4:	fd010113          	addi	sp,sp,-48
      b8:	02112623          	sw	ra,44(sp)
      bc:	02812423          	sw	s0,40(sp)
      c0:	03010413          	addi	s0,sp,48
      c4:	fca42e23          	sw	a0,-36(s0)
      c8:	fcb42c23          	sw	a1,-40(s0)
      cc:	fd842783          	lw	a5,-40(s0)
      d0:	fff78793          	addi	a5,a5,-1
      d4:	00279793          	slli	a5,a5,0x2
      d8:	fef42623          	sw	a5,-20(s0)
      dc:	0380006f          	j	114 <print_hex+0x60>
      e0:	fec42783          	lw	a5,-20(s0)
      e4:	fdc42703          	lw	a4,-36(s0)
      e8:	00f757b3          	srl	a5,a4,a5
      ec:	00f7f793          	andi	a5,a5,15
      f0:	10000737          	lui	a4,0x10000
      f4:	00070713          	mv	a4,a4
      f8:	00f707b3          	add	a5,a4,a5
      fc:	0007c783          	lbu	a5,0(a5)
     100:	00078513          	mv	a0,a5
     104:	f25ff0ef          	jal	28 <print_char>
     108:	fec42783          	lw	a5,-20(s0)
     10c:	ffc78793          	addi	a5,a5,-4
     110:	fef42623          	sw	a5,-20(s0)
     114:	fec42783          	lw	a5,-20(s0)
     118:	fc07d4e3          	bgez	a5,e0 <print_hex+0x2c>
     11c:	00000013          	nop
     120:	00000013          	nop
     124:	02c12083          	lw	ra,44(sp)
     128:	02812403          	lw	s0,40(sp)
     12c:	03010113          	addi	sp,sp,48
     130:	00008067          	ret

00000134 <read_mtime>:
     134:	fe010113          	addi	sp,sp,-32
     138:	00112e23          	sw	ra,28(sp)
     13c:	00812c23          	sw	s0,24(sp)
     140:	02010413          	addi	s0,sp,32
     144:	60000337          	lui	t1,0x60000
     148:	00430313          	addi	t1,t1,4 # 60000004 <_stack_top+0x1fff8004>
     14c:	00032303          	lw	t1,0(t1)
     150:	fe642623          	sw	t1,-20(s0)
     154:	60000337          	lui	t1,0x60000
     158:	00032303          	lw	t1,0(t1) # 60000000 <_stack_top+0x1fff8000>
     15c:	fe642423          	sw	t1,-24(s0)
     160:	60000337          	lui	t1,0x60000
     164:	00430313          	addi	t1,t1,4 # 60000004 <_stack_top+0x1fff8004>
     168:	00032303          	lw	t1,0(t1)
     16c:	fec42e03          	lw	t3,-20(s0)
     170:	fc6e1ae3          	bne	t3,t1,144 <read_mtime+0x10>
     174:	fec42303          	lw	t1,-20(s0)
     178:	00030813          	mv	a6,t1
     17c:	00000893          	li	a7,0
     180:	00081793          	slli	a5,a6,0x0
     184:	00000713          	li	a4,0
     188:	fe842803          	lw	a6,-24(s0)
     18c:	00080613          	mv	a2,a6
     190:	00000693          	li	a3,0
     194:	00c76533          	or	a0,a4,a2
     198:	00d7e5b3          	or	a1,a5,a3
     19c:	00050713          	mv	a4,a0
     1a0:	00058793          	mv	a5,a1
     1a4:	00070513          	mv	a0,a4
     1a8:	00078593          	mv	a1,a5
     1ac:	01c12083          	lw	ra,28(sp)
     1b0:	01812403          	lw	s0,24(sp)
     1b4:	02010113          	addi	sp,sp,32
     1b8:	00008067          	ret

000001bc <gpio_read_in>:
     1bc:	ff010113          	addi	sp,sp,-16
     1c0:	00112623          	sw	ra,12(sp)
     1c4:	00812423          	sw	s0,8(sp)
     1c8:	01010413          	addi	s0,sp,16
     1cc:	00000793          	li	a5,0
     1d0:	0007a783          	lw	a5,0(a5)
     1d4:	00078513          	mv	a0,a5
     1d8:	00c12083          	lw	ra,12(sp)
     1dc:	00812403          	lw	s0,8(sp)
     1e0:	01010113          	addi	sp,sp,16
     1e4:	00008067          	ret

000001e8 <gpio_write_out>:
     1e8:	fe010113          	addi	sp,sp,-32
     1ec:	00112e23          	sw	ra,28(sp)
     1f0:	00812c23          	sw	s0,24(sp)
     1f4:	02010413          	addi	s0,sp,32
     1f8:	fea42623          	sw	a0,-20(s0)
     1fc:	00400793          	li	a5,4
     200:	fec42703          	lw	a4,-20(s0)
     204:	00e7a023          	sw	a4,0(a5)
     208:	00000013          	nop
     20c:	01c12083          	lw	ra,28(sp)
     210:	01812403          	lw	s0,24(sp)
     214:	02010113          	addi	sp,sp,32
     218:	00008067          	ret

0000021c <write_mtimecmp>:
     21c:	fe010113          	addi	sp,sp,-32
     220:	00112e23          	sw	ra,28(sp)
     224:	00812c23          	sw	s0,24(sp)
     228:	02010413          	addi	s0,sp,32
     22c:	fea42423          	sw	a0,-24(s0)
     230:	feb42623          	sw	a1,-20(s0)
     234:	600006b7          	lui	a3,0x60000
     238:	00c68693          	addi	a3,a3,12 # 6000000c <_stack_top+0x1fff800c>
     23c:	fff00613          	li	a2,-1
     240:	00c6a023          	sw	a2,0(a3)
     244:	600006b7          	lui	a3,0x60000
     248:	00868693          	addi	a3,a3,8 # 60000008 <_stack_top+0x1fff8008>
     24c:	fe842603          	lw	a2,-24(s0)
     250:	00c6a023          	sw	a2,0(a3)
     254:	fec42683          	lw	a3,-20(s0)
     258:	0006d713          	srli	a4,a3,0x0
     25c:	00000793          	li	a5,0
     260:	600006b7          	lui	a3,0x60000
     264:	00c68693          	addi	a3,a3,12 # 6000000c <_stack_top+0x1fff800c>
     268:	00070793          	mv	a5,a4
     26c:	00f6a023          	sw	a5,0(a3)
     270:	00000013          	nop
     274:	01c12083          	lw	ra,28(sp)
     278:	01812403          	lw	s0,24(sp)
     27c:	02010113          	addi	sp,sp,32
     280:	00008067          	ret

00000284 <trap_init>:
     284:	ff010113          	addi	sp,sp,-16
     288:	00112623          	sw	ra,12(sp)
     28c:	00812423          	sw	s0,8(sp)
     290:	01010413          	addi	s0,sp,16
     294:	3e400793          	li	a5,996
     298:	30579073          	csrw	mtvec,a5
     29c:	00000013          	nop
     2a0:	00c12083          	lw	ra,12(sp)
     2a4:	00812403          	lw	s0,8(sp)
     2a8:	01010113          	addi	sp,sp,16
     2ac:	00008067          	ret

000002b0 <interrupt_init>:
     2b0:	fd010113          	addi	sp,sp,-48
     2b4:	02112623          	sw	ra,44(sp)
     2b8:	02812423          	sw	s0,40(sp)
     2bc:	03010413          	addi	s0,sp,48
     2c0:	fca42e23          	sw	a0,-36(s0)
     2c4:	fcb42c23          	sw	a1,-40(s0)
     2c8:	304027f3          	csrr	a5,mie
     2cc:	fef42423          	sw	a5,-24(s0)
     2d0:	fe842783          	lw	a5,-24(s0)
     2d4:	fef42623          	sw	a5,-20(s0)
     2d8:	fdc42783          	lw	a5,-36(s0)
     2dc:	00078a63          	beqz	a5,2f0 <interrupt_init+0x40>
     2e0:	fec42783          	lw	a5,-20(s0)
     2e4:	0807e793          	ori	a5,a5,128
     2e8:	fef42623          	sw	a5,-20(s0)
     2ec:	0100006f          	j	2fc <interrupt_init+0x4c>
     2f0:	fec42783          	lw	a5,-20(s0)
     2f4:	f7f7f793          	andi	a5,a5,-129
     2f8:	fef42623          	sw	a5,-20(s0)
     2fc:	fd842783          	lw	a5,-40(s0)
     300:	00078e63          	beqz	a5,31c <interrupt_init+0x6c>
     304:	fec42703          	lw	a4,-20(s0)
     308:	000017b7          	lui	a5,0x1
     30c:	80078793          	addi	a5,a5,-2048 # 800 <vga_draw_color_bars+0x80>
     310:	00f767b3          	or	a5,a4,a5
     314:	fef42623          	sw	a5,-20(s0)
     318:	0180006f          	j	330 <interrupt_init+0x80>
     31c:	fec42703          	lw	a4,-20(s0)
     320:	fffff7b7          	lui	a5,0xfffff
     324:	7ff78793          	addi	a5,a5,2047 # fffff7ff <_stack_top+0xbfff77ff>
     328:	00f777b3          	and	a5,a4,a5
     32c:	fef42623          	sw	a5,-20(s0)
     330:	fec42783          	lw	a5,-20(s0)
     334:	30479073          	csrw	mie,a5
     338:	300027f3          	csrr	a5,mstatus
     33c:	fef42223          	sw	a5,-28(s0)
     340:	fe442783          	lw	a5,-28(s0)
     344:	fef42023          	sw	a5,-32(s0)
     348:	fe042783          	lw	a5,-32(s0)
     34c:	0087e793          	ori	a5,a5,8
     350:	fef42023          	sw	a5,-32(s0)
     354:	fe042783          	lw	a5,-32(s0)
     358:	30079073          	csrw	mstatus,a5
     35c:	00000013          	nop
     360:	02c12083          	lw	ra,44(sp)
     364:	02812403          	lw	s0,40(sp)
     368:	03010113          	addi	sp,sp,48
     36c:	00008067          	ret

00000370 <timer_init>:
     370:	fd010113          	addi	sp,sp,-48
     374:	02112623          	sw	ra,44(sp)
     378:	02812423          	sw	s0,40(sp)
     37c:	03010413          	addi	s0,sp,48
     380:	fca42c23          	sw	a0,-40(s0)
     384:	fcb42e23          	sw	a1,-36(s0)
     388:	dadff0ef          	jal	134 <read_mtime>
     38c:	fea42423          	sw	a0,-24(s0)
     390:	feb42623          	sw	a1,-20(s0)
     394:	fe842703          	lw	a4,-24(s0)
     398:	fec42783          	lw	a5,-20(s0)
     39c:	fd842503          	lw	a0,-40(s0)
     3a0:	fdc42583          	lw	a1,-36(s0)
     3a4:	00a70633          	add	a2,a4,a0
     3a8:	00060813          	mv	a6,a2
     3ac:	00e83833          	sltu	a6,a6,a4
     3b0:	00b786b3          	add	a3,a5,a1
     3b4:	00d807b3          	add	a5,a6,a3
     3b8:	00078693          	mv	a3,a5
     3bc:	00060713          	mv	a4,a2
     3c0:	00068793          	mv	a5,a3
     3c4:	00070513          	mv	a0,a4
     3c8:	00078593          	mv	a1,a5
     3cc:	e51ff0ef          	jal	21c <write_mtimecmp>
     3d0:	00000013          	nop
     3d4:	02c12083          	lw	ra,44(sp)
     3d8:	02812403          	lw	s0,40(sp)
     3dc:	03010113          	addi	sp,sp,48
     3e0:	00008067          	ret

000003e4 <trap_handler>:
     3e4:	fa010113          	addi	sp,sp,-96
     3e8:	04112e23          	sw	ra,92(sp)
     3ec:	04512c23          	sw	t0,88(sp)
     3f0:	04612a23          	sw	t1,84(sp)
     3f4:	04712823          	sw	t2,80(sp)
     3f8:	04812623          	sw	s0,76(sp)
     3fc:	04a12423          	sw	a0,72(sp)
     400:	04b12223          	sw	a1,68(sp)
     404:	04c12023          	sw	a2,64(sp)
     408:	02d12e23          	sw	a3,60(sp)
     40c:	02e12c23          	sw	a4,56(sp)
     410:	02f12a23          	sw	a5,52(sp)
     414:	03012823          	sw	a6,48(sp)
     418:	03112623          	sw	a7,44(sp)
     41c:	03c12423          	sw	t3,40(sp)
     420:	03d12223          	sw	t4,36(sp)
     424:	03e12023          	sw	t5,32(sp)
     428:	01f12e23          	sw	t6,28(sp)
     42c:	06010413          	addi	s0,sp,96
     430:	342027f3          	csrr	a5,mcause
     434:	faf42623          	sw	a5,-84(s0)
     438:	fac42783          	lw	a5,-84(s0)
     43c:	faf42423          	sw	a5,-88(s0)
     440:	fa842783          	lw	a5,-88(s0)
     444:	0007dc63          	bgez	a5,45c <trap_handler+0x78>
     448:	fa842783          	lw	a5,-88(s0)
     44c:	01f7f713          	andi	a4,a5,31
     450:	00700793          	li	a5,7
     454:	00f71463          	bne	a4,a5,45c <trap_handler+0x78>
     458:	19d010ef          	jal	1df4 <timer_irq_handler>
     45c:	fa842783          	lw	a5,-88(s0)
     460:	0007dc63          	bgez	a5,478 <trap_handler+0x94>
     464:	fa842783          	lw	a5,-88(s0)
     468:	01f7f713          	andi	a4,a5,31
     46c:	00b00793          	li	a5,11
     470:	00f71463          	bne	a4,a5,478 <trap_handler+0x94>
     474:	151010ef          	jal	1dc4 <external_irq_handler>
     478:	00000013          	nop
     47c:	05c12083          	lw	ra,92(sp)
     480:	05812283          	lw	t0,88(sp)
     484:	05412303          	lw	t1,84(sp)
     488:	05012383          	lw	t2,80(sp)
     48c:	04c12403          	lw	s0,76(sp)
     490:	04812503          	lw	a0,72(sp)
     494:	04412583          	lw	a1,68(sp)
     498:	04012603          	lw	a2,64(sp)
     49c:	03c12683          	lw	a3,60(sp)
     4a0:	03812703          	lw	a4,56(sp)
     4a4:	03412783          	lw	a5,52(sp)
     4a8:	03012803          	lw	a6,48(sp)
     4ac:	02c12883          	lw	a7,44(sp)
     4b0:	02812e03          	lw	t3,40(sp)
     4b4:	02412e83          	lw	t4,36(sp)
     4b8:	02012f03          	lw	t5,32(sp)
     4bc:	01c12f83          	lw	t6,28(sp)
     4c0:	06010113          	addi	sp,sp,96
     4c4:	30200073          	mret

000004c8 <strcmp>:
     4c8:	fe010113          	addi	sp,sp,-32
     4cc:	00112e23          	sw	ra,28(sp)
     4d0:	00812c23          	sw	s0,24(sp)
     4d4:	02010413          	addi	s0,sp,32
     4d8:	fea42623          	sw	a0,-20(s0)
     4dc:	feb42423          	sw	a1,-24(s0)
     4e0:	01c0006f          	j	4fc <strcmp+0x34>
     4e4:	fec42783          	lw	a5,-20(s0)
     4e8:	00178793          	addi	a5,a5,1
     4ec:	fef42623          	sw	a5,-20(s0)
     4f0:	fe842783          	lw	a5,-24(s0)
     4f4:	00178793          	addi	a5,a5,1
     4f8:	fef42423          	sw	a5,-24(s0)
     4fc:	fec42783          	lw	a5,-20(s0)
     500:	0007c783          	lbu	a5,0(a5)
     504:	02078263          	beqz	a5,528 <strcmp+0x60>
     508:	fe842783          	lw	a5,-24(s0)
     50c:	0007c783          	lbu	a5,0(a5)
     510:	00078c63          	beqz	a5,528 <strcmp+0x60>
     514:	fec42783          	lw	a5,-20(s0)
     518:	0007c703          	lbu	a4,0(a5)
     51c:	fe842783          	lw	a5,-24(s0)
     520:	0007c783          	lbu	a5,0(a5)
     524:	fcf700e3          	beq	a4,a5,4e4 <strcmp+0x1c>
     528:	fec42783          	lw	a5,-20(s0)
     52c:	0007c783          	lbu	a5,0(a5)
     530:	00078713          	mv	a4,a5
     534:	fe842783          	lw	a5,-24(s0)
     538:	0007c783          	lbu	a5,0(a5)
     53c:	40f707b3          	sub	a5,a4,a5
     540:	00078513          	mv	a0,a5
     544:	01c12083          	lw	ra,28(sp)
     548:	01812403          	lw	s0,24(sp)
     54c:	02010113          	addi	sp,sp,32
     550:	00008067          	ret

00000554 <get_char_noecho>:
     554:	fe010113          	addi	sp,sp,-32
     558:	00112e23          	sw	ra,28(sp)
     55c:	00812c23          	sw	s0,24(sp)
     560:	02010413          	addi	s0,sp,32
     564:	300007b7          	lui	a5,0x30000
     568:	00478793          	addi	a5,a5,4 # 30000004 <STACK_TOP+0x2fff8004>
     56c:	0007c783          	lbu	a5,0(a5)
     570:	fef407a3          	sb	a5,-17(s0)
     574:	fef44783          	lbu	a5,-17(s0)
     578:	00078513          	mv	a0,a5
     57c:	01c12083          	lw	ra,28(sp)
     580:	01812403          	lw	s0,24(sp)
     584:	02010113          	addi	sp,sp,32
     588:	00008067          	ret

0000058c <write_mem>:
     58c:	fe010113          	addi	sp,sp,-32
     590:	00112e23          	sw	ra,28(sp)
     594:	00812c23          	sw	s0,24(sp)
     598:	02010413          	addi	s0,sp,32
     59c:	fea42623          	sw	a0,-20(s0)
     5a0:	feb42423          	sw	a1,-24(s0)
     5a4:	fec42783          	lw	a5,-20(s0)
     5a8:	fe842703          	lw	a4,-24(s0)
     5ac:	00e7a023          	sw	a4,0(a5)
     5b0:	00000013          	nop
     5b4:	01c12083          	lw	ra,28(sp)
     5b8:	01812403          	lw	s0,24(sp)
     5bc:	02010113          	addi	sp,sp,32
     5c0:	00008067          	ret

000005c4 <read_mem>:
     5c4:	fe010113          	addi	sp,sp,-32
     5c8:	00112e23          	sw	ra,28(sp)
     5cc:	00812c23          	sw	s0,24(sp)
     5d0:	02010413          	addi	s0,sp,32
     5d4:	fea42623          	sw	a0,-20(s0)
     5d8:	fec42783          	lw	a5,-20(s0)
     5dc:	0007a783          	lw	a5,0(a5)
     5e0:	00078513          	mv	a0,a5
     5e4:	01c12083          	lw	ra,28(sp)
     5e8:	01812403          	lw	s0,24(sp)
     5ec:	02010113          	addi	sp,sp,32
     5f0:	00008067          	ret

000005f4 <write_mem16>:
     5f4:	fe010113          	addi	sp,sp,-32
     5f8:	00112e23          	sw	ra,28(sp)
     5fc:	00812c23          	sw	s0,24(sp)
     600:	02010413          	addi	s0,sp,32
     604:	fea42623          	sw	a0,-20(s0)
     608:	00058793          	mv	a5,a1
     60c:	fef41523          	sh	a5,-22(s0)
     610:	fec42783          	lw	a5,-20(s0)
     614:	fea45703          	lhu	a4,-22(s0)
     618:	00e79023          	sh	a4,0(a5)
     61c:	00000013          	nop
     620:	01c12083          	lw	ra,28(sp)
     624:	01812403          	lw	s0,24(sp)
     628:	02010113          	addi	sp,sp,32
     62c:	00008067          	ret

00000630 <read_mem16>:
     630:	fe010113          	addi	sp,sp,-32
     634:	00112e23          	sw	ra,28(sp)
     638:	00812c23          	sw	s0,24(sp)
     63c:	02010413          	addi	s0,sp,32
     640:	fea42623          	sw	a0,-20(s0)
     644:	fec42783          	lw	a5,-20(s0)
     648:	0007d783          	lhu	a5,0(a5)
     64c:	01079793          	slli	a5,a5,0x10
     650:	0107d793          	srli	a5,a5,0x10
     654:	00078513          	mv	a0,a5
     658:	01c12083          	lw	ra,28(sp)
     65c:	01812403          	lw	s0,24(sp)
     660:	02010113          	addi	sp,sp,32
     664:	00008067          	ret

00000668 <write_mem8>:
     668:	fe010113          	addi	sp,sp,-32
     66c:	00112e23          	sw	ra,28(sp)
     670:	00812c23          	sw	s0,24(sp)
     674:	02010413          	addi	s0,sp,32
     678:	fea42623          	sw	a0,-20(s0)
     67c:	00058793          	mv	a5,a1
     680:	fef405a3          	sb	a5,-21(s0)
     684:	fec42783          	lw	a5,-20(s0)
     688:	feb44703          	lbu	a4,-21(s0)
     68c:	00e78023          	sb	a4,0(a5)
     690:	00000013          	nop
     694:	01c12083          	lw	ra,28(sp)
     698:	01812403          	lw	s0,24(sp)
     69c:	02010113          	addi	sp,sp,32
     6a0:	00008067          	ret

000006a4 <read_mem8>:
     6a4:	fe010113          	addi	sp,sp,-32
     6a8:	00112e23          	sw	ra,28(sp)
     6ac:	00812c23          	sw	s0,24(sp)
     6b0:	02010413          	addi	s0,sp,32
     6b4:	fea42623          	sw	a0,-20(s0)
     6b8:	fec42783          	lw	a5,-20(s0)
     6bc:	0007c783          	lbu	a5,0(a5)
     6c0:	0ff7f793          	zext.b	a5,a5
     6c4:	00078513          	mv	a0,a5
     6c8:	01c12083          	lw	ra,28(sp)
     6cc:	01812403          	lw	s0,24(sp)
     6d0:	02010113          	addi	sp,sp,32
     6d4:	00008067          	ret

000006d8 <vga_clear>:
     6d8:	fd010113          	addi	sp,sp,-48
     6dc:	02112623          	sw	ra,44(sp)
     6e0:	02812423          	sw	s0,40(sp)
     6e4:	03010413          	addi	s0,sp,48
     6e8:	00050793          	mv	a5,a0
     6ec:	00058693          	mv	a3,a1
     6f0:	00060713          	mv	a4,a2
     6f4:	fcf40fa3          	sb	a5,-33(s0)
     6f8:	00068793          	mv	a5,a3
     6fc:	fcf40f23          	sb	a5,-34(s0)
     700:	00070793          	mv	a5,a4
     704:	fcf40ea3          	sb	a5,-35(s0)
     708:	fdf44783          	lbu	a5,-33(s0)
     70c:	01079713          	slli	a4,a5,0x10
     710:	fde44783          	lbu	a5,-34(s0)
     714:	00879793          	slli	a5,a5,0x8
     718:	00f76733          	or	a4,a4,a5
     71c:	fdd44783          	lbu	a5,-35(s0)
     720:	00f767b3          	or	a5,a4,a5
     724:	fef42423          	sw	a5,-24(s0)
     728:	700007b7          	lui	a5,0x70000
     72c:	fef42223          	sw	a5,-28(s0)
     730:	fe042623          	sw	zero,-20(s0)
     734:	0280006f          	j	75c <vga_clear+0x84>
     738:	fec42783          	lw	a5,-20(s0)
     73c:	00279793          	slli	a5,a5,0x2
     740:	fe442703          	lw	a4,-28(s0)
     744:	00f707b3          	add	a5,a4,a5
     748:	fe842703          	lw	a4,-24(s0)
     74c:	00e7a023          	sw	a4,0(a5) # 70000000 <_stack_top+0x2fff8000>
     750:	fec42783          	lw	a5,-20(s0)
     754:	00178793          	addi	a5,a5,1
     758:	fef42623          	sw	a5,-20(s0)
     75c:	fec42703          	lw	a4,-20(s0)
     760:	0004b7b7          	lui	a5,0x4b
     764:	fcf76ae3          	bltu	a4,a5,738 <vga_clear+0x60>
     768:	00000013          	nop
     76c:	00000013          	nop
     770:	02c12083          	lw	ra,44(sp)
     774:	02812403          	lw	s0,40(sp)
     778:	03010113          	addi	sp,sp,48
     77c:	00008067          	ret

00000780 <vga_draw_color_bars>:
     780:	fb010113          	addi	sp,sp,-80
     784:	04112623          	sw	ra,76(sp)
     788:	04812423          	sw	s0,72(sp)
     78c:	05010413          	addi	s0,sp,80
     790:	700007b7          	lui	a5,0x70000
     794:	fef42023          	sw	a5,-32(s0)
     798:	100007b7          	lui	a5,0x10000
     79c:	01478793          	addi	a5,a5,20 # 10000014 <STACK_TOP+0xfff8014>
     7a0:	0007a803          	lw	a6,0(a5)
     7a4:	0047a503          	lw	a0,4(a5)
     7a8:	0087a583          	lw	a1,8(a5)
     7ac:	00c7a603          	lw	a2,12(a5)
     7b0:	0107a683          	lw	a3,16(a5)
     7b4:	0147a703          	lw	a4,20(a5)
     7b8:	fb042c23          	sw	a6,-72(s0)
     7bc:	faa42e23          	sw	a0,-68(s0)
     7c0:	fcb42023          	sw	a1,-64(s0)
     7c4:	fcc42223          	sw	a2,-60(s0)
     7c8:	fcd42423          	sw	a3,-56(s0)
     7cc:	fce42623          	sw	a4,-52(s0)
     7d0:	0187a783          	lw	a5,24(a5)
     7d4:	fcf42823          	sw	a5,-48(s0)
     7d8:	00700793          	li	a5,7
     7dc:	fcf42e23          	sw	a5,-36(s0)
     7e0:	28000713          	li	a4,640
     7e4:	fdc42783          	lw	a5,-36(s0)
     7e8:	02f747b3          	div	a5,a4,a5
     7ec:	fcf42c23          	sw	a5,-40(s0)
     7f0:	fe042623          	sw	zero,-20(s0)
     7f4:	0b00006f          	j	8a4 <vga_draw_color_bars+0x124>
     7f8:	fe042423          	sw	zero,-24(s0)
     7fc:	0900006f          	j	88c <vga_draw_color_bars+0x10c>
     800:	fe842703          	lw	a4,-24(s0)
     804:	fd842783          	lw	a5,-40(s0)
     808:	02f747b3          	div	a5,a4,a5
     80c:	fef42223          	sw	a5,-28(s0)
     810:	fe442703          	lw	a4,-28(s0)
     814:	fdc42783          	lw	a5,-36(s0)
     818:	00f74863          	blt	a4,a5,828 <vga_draw_color_bars+0xa8>
     81c:	fdc42783          	lw	a5,-36(s0)
     820:	fff78793          	addi	a5,a5,-1
     824:	fef42223          	sw	a5,-28(s0)
     828:	fe442703          	lw	a4,-28(s0)
     82c:	fb840793          	addi	a5,s0,-72
     830:	00271713          	slli	a4,a4,0x2
     834:	00f707b3          	add	a5,a4,a5
     838:	0007a703          	lw	a4,0(a5)
     83c:	010007b7          	lui	a5,0x1000
     840:	fff78793          	addi	a5,a5,-1 # ffffff <STACK_TOP+0xff7fff>
     844:	00f777b3          	and	a5,a4,a5
     848:	fcf42a23          	sw	a5,-44(s0)
     84c:	fec42703          	lw	a4,-20(s0)
     850:	00070793          	mv	a5,a4
     854:	00279793          	slli	a5,a5,0x2
     858:	00e787b3          	add	a5,a5,a4
     85c:	00779793          	slli	a5,a5,0x7
     860:	00078713          	mv	a4,a5
     864:	fe842783          	lw	a5,-24(s0)
     868:	00f707b3          	add	a5,a4,a5
     86c:	00279793          	slli	a5,a5,0x2
     870:	fe042703          	lw	a4,-32(s0)
     874:	00f707b3          	add	a5,a4,a5
     878:	fd442703          	lw	a4,-44(s0)
     87c:	00e7a023          	sw	a4,0(a5)
     880:	fe842783          	lw	a5,-24(s0)
     884:	00178793          	addi	a5,a5,1
     888:	fef42423          	sw	a5,-24(s0)
     88c:	fe842703          	lw	a4,-24(s0)
     890:	27f00793          	li	a5,639
     894:	f6e7d6e3          	bge	a5,a4,800 <vga_draw_color_bars+0x80>
     898:	fec42783          	lw	a5,-20(s0)
     89c:	00178793          	addi	a5,a5,1
     8a0:	fef42623          	sw	a5,-20(s0)
     8a4:	fec42703          	lw	a4,-20(s0)
     8a8:	1df00793          	li	a5,479
     8ac:	f4e7d6e3          	bge	a5,a4,7f8 <vga_draw_color_bars+0x78>
     8b0:	00000013          	nop
     8b4:	00000013          	nop
     8b8:	04c12083          	lw	ra,76(sp)
     8bc:	04812403          	lw	s0,72(sp)
     8c0:	05010113          	addi	sp,sp,80
     8c4:	00008067          	ret

000008c8 <pwm_write_duty>:
     8c8:	fd010113          	addi	sp,sp,-48
     8cc:	02112623          	sw	ra,44(sp)
     8d0:	02812423          	sw	s0,40(sp)
     8d4:	03010413          	addi	s0,sp,48
     8d8:	fca42e23          	sw	a0,-36(s0)
     8dc:	fcb42c23          	sw	a1,-40(s0)
     8e0:	fdc42703          	lw	a4,-36(s0)
     8e4:	00100793          	li	a5,1
     8e8:	02e7ee63          	bltu	a5,a4,924 <pwm_write_duty+0x5c>
     8ec:	fd842703          	lw	a4,-40(s0)
     8f0:	0ff00793          	li	a5,255
     8f4:	00e7f663          	bgeu	a5,a4,900 <pwm_write_duty+0x38>
     8f8:	0ff00793          	li	a5,255
     8fc:	fcf42c23          	sw	a5,-40(s0)
     900:	fdc42703          	lw	a4,-36(s0)
     904:	080007b7          	lui	a5,0x8000
     908:	00f707b3          	add	a5,a4,a5
     90c:	00279793          	slli	a5,a5,0x2
     910:	fef42623          	sw	a5,-20(s0)
     914:	fec42783          	lw	a5,-20(s0)
     918:	fd842703          	lw	a4,-40(s0)
     91c:	00e7a023          	sw	a4,0(a5) # 8000000 <STACK_TOP+0x7ff8000>
     920:	0080006f          	j	928 <pwm_write_duty+0x60>
     924:	00000013          	nop
     928:	02c12083          	lw	ra,44(sp)
     92c:	02812403          	lw	s0,40(sp)
     930:	03010113          	addi	sp,sp,48
     934:	00008067          	ret

00000938 <parse_str_uint>:
     938:	fd010113          	addi	sp,sp,-48
     93c:	02112623          	sw	ra,44(sp)
     940:	02812423          	sw	s0,40(sp)
     944:	03010413          	addi	s0,sp,48
     948:	fca42e23          	sw	a0,-36(s0)
     94c:	fcb42c23          	sw	a1,-40(s0)
     950:	fdc42783          	lw	a5,-36(s0)
     954:	00078663          	beqz	a5,960 <parse_str_uint+0x28>
     958:	fd842783          	lw	a5,-40(s0)
     95c:	00079663          	bnez	a5,968 <parse_str_uint+0x30>
     960:	fff00793          	li	a5,-1
     964:	0980006f          	j	9fc <parse_str_uint+0xc4>
     968:	fd842783          	lw	a5,-40(s0)
     96c:	0007a023          	sw	zero,0(a5)
     970:	fe042623          	sw	zero,-20(s0)
     974:	0680006f          	j	9dc <parse_str_uint+0xa4>
     978:	fdc42783          	lw	a5,-36(s0)
     97c:	00178713          	addi	a4,a5,1
     980:	fce42e23          	sw	a4,-36(s0)
     984:	0007c783          	lbu	a5,0(a5)
     988:	fef405a3          	sb	a5,-21(s0)
     98c:	feb44703          	lbu	a4,-21(s0)
     990:	02f00793          	li	a5,47
     994:	04e7fa63          	bgeu	a5,a4,9e8 <parse_str_uint+0xb0>
     998:	feb44703          	lbu	a4,-21(s0)
     99c:	03900793          	li	a5,57
     9a0:	04e7e463          	bltu	a5,a4,9e8 <parse_str_uint+0xb0>
     9a4:	fd842783          	lw	a5,-40(s0)
     9a8:	0007a703          	lw	a4,0(a5)
     9ac:	00070793          	mv	a5,a4
     9b0:	00279793          	slli	a5,a5,0x2
     9b4:	00e787b3          	add	a5,a5,a4
     9b8:	00179793          	slli	a5,a5,0x1
     9bc:	00078713          	mv	a4,a5
     9c0:	feb44783          	lbu	a5,-21(s0)
     9c4:	00f707b3          	add	a5,a4,a5
     9c8:	fd078713          	addi	a4,a5,-48
     9cc:	fd842783          	lw	a5,-40(s0)
     9d0:	00e7a023          	sw	a4,0(a5)
     9d4:	00100793          	li	a5,1
     9d8:	fef42623          	sw	a5,-20(s0)
     9dc:	fdc42783          	lw	a5,-36(s0)
     9e0:	0007c783          	lbu	a5,0(a5)
     9e4:	f8079ae3          	bnez	a5,978 <parse_str_uint+0x40>
     9e8:	fec42783          	lw	a5,-20(s0)
     9ec:	00078663          	beqz	a5,9f8 <parse_str_uint+0xc0>
     9f0:	00000793          	li	a5,0
     9f4:	0080006f          	j	9fc <parse_str_uint+0xc4>
     9f8:	fff00793          	li	a5,-1
     9fc:	00078513          	mv	a0,a5
     a00:	02c12083          	lw	ra,44(sp)
     a04:	02812403          	lw	s0,40(sp)
     a08:	03010113          	addi	sp,sp,48
     a0c:	00008067          	ret

00000a10 <get_str_with_history>:
     a10:	fd010113          	addi	sp,sp,-48
     a14:	02112623          	sw	ra,44(sp)
     a18:	02812423          	sw	s0,40(sp)
     a1c:	03010413          	addi	s0,sp,48
     a20:	fca42e23          	sw	a0,-36(s0)
     a24:	fcb42c23          	sw	a1,-40(s0)
     a28:	fcc42a23          	sw	a2,-44(s0)
     a2c:	fe042623          	sw	zero,-20(s0)
     a30:	fe042423          	sw	zero,-24(s0)
     a34:	b21ff0ef          	jal	554 <get_char_noecho>
     a38:	00050793          	mv	a5,a0
     a3c:	fef401a3          	sb	a5,-29(s0)
     a40:	fe344703          	lbu	a4,-29(s0)
     a44:	01b00793          	li	a5,27
     a48:	14f71a63          	bne	a4,a5,b9c <get_str_with_history+0x18c>
     a4c:	b09ff0ef          	jal	554 <get_char_noecho>
     a50:	00050793          	mv	a5,a0
     a54:	fef40123          	sb	a5,-30(s0)
     a58:	fe244703          	lbu	a4,-30(s0)
     a5c:	05b00793          	li	a5,91
     a60:	20f71663          	bne	a4,a5,c6c <get_str_with_history+0x25c>
     a64:	af1ff0ef          	jal	554 <get_char_noecho>
     a68:	00050793          	mv	a5,a0
     a6c:	fef400a3          	sb	a5,-31(s0)
     a70:	fe144703          	lbu	a4,-31(s0)
     a74:	04100793          	li	a5,65
     a78:	0cf71463          	bne	a4,a5,b40 <get_str_with_history+0x130>
     a7c:	0280006f          	j	aa4 <get_str_with_history+0x94>
     a80:	00800513          	li	a0,8
     a84:	da4ff0ef          	jal	28 <print_char>
     a88:	02000513          	li	a0,32
     a8c:	d9cff0ef          	jal	28 <print_char>
     a90:	00800513          	li	a0,8
     a94:	d94ff0ef          	jal	28 <print_char>
     a98:	fec42783          	lw	a5,-20(s0)
     a9c:	fff78793          	addi	a5,a5,-1
     aa0:	fef42623          	sw	a5,-20(s0)
     aa4:	fec42783          	lw	a5,-20(s0)
     aa8:	fcf04ce3          	bgtz	a5,a80 <get_str_with_history+0x70>
     aac:	fe042223          	sw	zero,-28(s0)
     ab0:	0480006f          	j	af8 <get_str_with_history+0xe8>
     ab4:	fe442783          	lw	a5,-28(s0)
     ab8:	fd442703          	lw	a4,-44(s0)
     abc:	00f70733          	add	a4,a4,a5
     ac0:	fe442783          	lw	a5,-28(s0)
     ac4:	fdc42683          	lw	a3,-36(s0)
     ac8:	00f687b3          	add	a5,a3,a5
     acc:	00074703          	lbu	a4,0(a4) # 10000000 <STACK_TOP+0xfff8000>
     ad0:	00e78023          	sb	a4,0(a5)
     ad4:	fe442783          	lw	a5,-28(s0)
     ad8:	fdc42703          	lw	a4,-36(s0)
     adc:	00f707b3          	add	a5,a4,a5
     ae0:	0007c783          	lbu	a5,0(a5)
     ae4:	00078513          	mv	a0,a5
     ae8:	d40ff0ef          	jal	28 <print_char>
     aec:	fe442783          	lw	a5,-28(s0)
     af0:	00178793          	addi	a5,a5,1
     af4:	fef42223          	sw	a5,-28(s0)
     af8:	fe442783          	lw	a5,-28(s0)
     afc:	fd442703          	lw	a4,-44(s0)
     b00:	00f707b3          	add	a5,a4,a5
     b04:	0007c783          	lbu	a5,0(a5)
     b08:	00078a63          	beqz	a5,b1c <get_str_with_history+0x10c>
     b0c:	fd842783          	lw	a5,-40(s0)
     b10:	fff78793          	addi	a5,a5,-1
     b14:	fe442703          	lw	a4,-28(s0)
     b18:	f8f74ee3          	blt	a4,a5,ab4 <get_str_with_history+0xa4>
     b1c:	fe442783          	lw	a5,-28(s0)
     b20:	fef42623          	sw	a5,-20(s0)
     b24:	fec42783          	lw	a5,-20(s0)
     b28:	fdc42703          	lw	a4,-36(s0)
     b2c:	00f707b3          	add	a5,a4,a5
     b30:	00078023          	sb	zero,0(a5)
     b34:	00100793          	li	a5,1
     b38:	fef42423          	sw	a5,-24(s0)
     b3c:	13c0006f          	j	c78 <get_str_with_history+0x268>
     b40:	fe144703          	lbu	a4,-31(s0)
     b44:	04200793          	li	a5,66
     b48:	12f71263          	bne	a4,a5,c6c <get_str_with_history+0x25c>
     b4c:	fe842783          	lw	a5,-24(s0)
     b50:	12078263          	beqz	a5,c74 <get_str_with_history+0x264>
     b54:	0280006f          	j	b7c <get_str_with_history+0x16c>
     b58:	00800513          	li	a0,8
     b5c:	cccff0ef          	jal	28 <print_char>
     b60:	02000513          	li	a0,32
     b64:	cc4ff0ef          	jal	28 <print_char>
     b68:	00800513          	li	a0,8
     b6c:	cbcff0ef          	jal	28 <print_char>
     b70:	fec42783          	lw	a5,-20(s0)
     b74:	fff78793          	addi	a5,a5,-1
     b78:	fef42623          	sw	a5,-20(s0)
     b7c:	fec42783          	lw	a5,-20(s0)
     b80:	fcf04ce3          	bgtz	a5,b58 <get_str_with_history+0x148>
     b84:	fec42783          	lw	a5,-20(s0)
     b88:	fdc42703          	lw	a4,-36(s0)
     b8c:	00f707b3          	add	a5,a4,a5
     b90:	00078023          	sb	zero,0(a5)
     b94:	fe042423          	sw	zero,-24(s0)
     b98:	0dc0006f          	j	c74 <get_str_with_history+0x264>
     b9c:	fe344703          	lbu	a4,-29(s0)
     ba0:	00d00793          	li	a5,13
     ba4:	0cf70c63          	beq	a4,a5,c7c <get_str_with_history+0x26c>
     ba8:	fe344703          	lbu	a4,-29(s0)
     bac:	00a00793          	li	a5,10
     bb0:	0cf70663          	beq	a4,a5,c7c <get_str_with_history+0x26c>
     bb4:	fe344703          	lbu	a4,-29(s0)
     bb8:	00800793          	li	a5,8
     bbc:	00f70863          	beq	a4,a5,bcc <get_str_with_history+0x1bc>
     bc0:	fe344703          	lbu	a4,-29(s0)
     bc4:	07f00793          	li	a5,127
     bc8:	04f71063          	bne	a4,a5,c08 <get_str_with_history+0x1f8>
     bcc:	fec42783          	lw	a5,-20(s0)
     bd0:	02f05463          	blez	a5,bf8 <get_str_with_history+0x1e8>
     bd4:	fec42783          	lw	a5,-20(s0)
     bd8:	fff78793          	addi	a5,a5,-1
     bdc:	fef42623          	sw	a5,-20(s0)
     be0:	00800513          	li	a0,8
     be4:	c44ff0ef          	jal	28 <print_char>
     be8:	02000513          	li	a0,32
     bec:	c3cff0ef          	jal	28 <print_char>
     bf0:	00800513          	li	a0,8
     bf4:	c34ff0ef          	jal	28 <print_char>
     bf8:	fe842783          	lw	a5,-24(s0)
     bfc:	06078e63          	beqz	a5,c78 <get_str_with_history+0x268>
     c00:	fe042423          	sw	zero,-24(s0)
     c04:	0740006f          	j	c78 <get_str_with_history+0x268>
     c08:	fd842783          	lw	a5,-40(s0)
     c0c:	fff78793          	addi	a5,a5,-1
     c10:	fec42703          	lw	a4,-20(s0)
     c14:	e2f750e3          	bge	a4,a5,a34 <get_str_with_history+0x24>
     c18:	fe344703          	lbu	a4,-29(s0)
     c1c:	01f00793          	li	a5,31
     c20:	e0e7fae3          	bgeu	a5,a4,a34 <get_str_with_history+0x24>
     c24:	fe344703          	lbu	a4,-29(s0)
     c28:	07e00793          	li	a5,126
     c2c:	e0e7e4e3          	bltu	a5,a4,a34 <get_str_with_history+0x24>
     c30:	fec42783          	lw	a5,-20(s0)
     c34:	00178713          	addi	a4,a5,1
     c38:	fee42623          	sw	a4,-20(s0)
     c3c:	00078713          	mv	a4,a5
     c40:	fdc42783          	lw	a5,-36(s0)
     c44:	00e787b3          	add	a5,a5,a4
     c48:	fe344703          	lbu	a4,-29(s0)
     c4c:	00e78023          	sb	a4,0(a5)
     c50:	fe344783          	lbu	a5,-29(s0)
     c54:	00078513          	mv	a0,a5
     c58:	bd0ff0ef          	jal	28 <print_char>
     c5c:	fe842783          	lw	a5,-24(s0)
     c60:	dc078ae3          	beqz	a5,a34 <get_str_with_history+0x24>
     c64:	fe042423          	sw	zero,-24(s0)
     c68:	dcdff06f          	j	a34 <get_str_with_history+0x24>
     c6c:	00000013          	nop
     c70:	dc5ff06f          	j	a34 <get_str_with_history+0x24>
     c74:	00000013          	nop
     c78:	dbdff06f          	j	a34 <get_str_with_history+0x24>
     c7c:	fec42783          	lw	a5,-20(s0)
     c80:	fdc42703          	lw	a4,-36(s0)
     c84:	00f707b3          	add	a5,a4,a5
     c88:	00078023          	sb	zero,0(a5)
     c8c:	fec42783          	lw	a5,-20(s0)
     c90:	00078513          	mv	a0,a5
     c94:	02c12083          	lw	ra,44(sp)
     c98:	02812403          	lw	s0,40(sp)
     c9c:	03010113          	addi	sp,sp,48
     ca0:	00008067          	ret

00000ca4 <parse_command>:
     ca4:	fd010113          	addi	sp,sp,-48
     ca8:	02112623          	sw	ra,44(sp)
     cac:	02812423          	sw	s0,40(sp)
     cb0:	03010413          	addi	s0,sp,48
     cb4:	fca42e23          	sw	a0,-36(s0)
     cb8:	fcb42c23          	sw	a1,-40(s0)
     cbc:	0100006f          	j	ccc <parse_command+0x28>
     cc0:	fdc42783          	lw	a5,-36(s0)
     cc4:	00178793          	addi	a5,a5,1
     cc8:	fcf42e23          	sw	a5,-36(s0)
     ccc:	fdc42783          	lw	a5,-36(s0)
     cd0:	0007c703          	lbu	a4,0(a5)
     cd4:	02000793          	li	a5,32
     cd8:	fef704e3          	beq	a4,a5,cc0 <parse_command+0x1c>
     cdc:	fdc42783          	lw	a5,-36(s0)
     ce0:	0007c703          	lbu	a4,0(a5)
     ce4:	00900793          	li	a5,9
     ce8:	fcf70ce3          	beq	a4,a5,cc0 <parse_command+0x1c>
     cec:	fe042623          	sw	zero,-20(s0)
     cf0:	fe042623          	sw	zero,-20(s0)
     cf4:	02c0006f          	j	d20 <parse_command+0x7c>
     cf8:	fdc42703          	lw	a4,-36(s0)
     cfc:	00170793          	addi	a5,a4,1
     d00:	fcf42e23          	sw	a5,-36(s0)
     d04:	fec42783          	lw	a5,-20(s0)
     d08:	00178693          	addi	a3,a5,1
     d0c:	fed42623          	sw	a3,-20(s0)
     d10:	00074703          	lbu	a4,0(a4)
     d14:	fd842683          	lw	a3,-40(s0)
     d18:	00f687b3          	add	a5,a3,a5
     d1c:	00e78023          	sb	a4,0(a5)
     d20:	fdc42783          	lw	a5,-36(s0)
     d24:	0007c783          	lbu	a5,0(a5)
     d28:	02078863          	beqz	a5,d58 <parse_command+0xb4>
     d2c:	fdc42783          	lw	a5,-36(s0)
     d30:	0007c703          	lbu	a4,0(a5)
     d34:	02000793          	li	a5,32
     d38:	02f70063          	beq	a4,a5,d58 <parse_command+0xb4>
     d3c:	fdc42783          	lw	a5,-36(s0)
     d40:	0007c703          	lbu	a4,0(a5)
     d44:	00900793          	li	a5,9
     d48:	00f70863          	beq	a4,a5,d58 <parse_command+0xb4>
     d4c:	fec42703          	lw	a4,-20(s0)
     d50:	00e00793          	li	a5,14
     d54:	fae7d2e3          	bge	a5,a4,cf8 <parse_command+0x54>
     d58:	fd842703          	lw	a4,-40(s0)
     d5c:	fec42783          	lw	a5,-20(s0)
     d60:	00f707b3          	add	a5,a4,a5
     d64:	00078023          	sb	zero,0(a5)
     d68:	0100006f          	j	d78 <parse_command+0xd4>
     d6c:	fdc42783          	lw	a5,-36(s0)
     d70:	00178793          	addi	a5,a5,1
     d74:	fcf42e23          	sw	a5,-36(s0)
     d78:	fdc42783          	lw	a5,-36(s0)
     d7c:	0007c703          	lbu	a4,0(a5)
     d80:	02000793          	li	a5,32
     d84:	fef704e3          	beq	a4,a5,d6c <parse_command+0xc8>
     d88:	fdc42783          	lw	a5,-36(s0)
     d8c:	0007c703          	lbu	a4,0(a5)
     d90:	00900793          	li	a5,9
     d94:	fcf70ce3          	beq	a4,a5,d6c <parse_command+0xc8>
     d98:	fe042623          	sw	zero,-20(s0)
     d9c:	02c0006f          	j	dc8 <parse_command+0x124>
     da0:	fdc42703          	lw	a4,-36(s0)
     da4:	00170793          	addi	a5,a4,1
     da8:	fcf42e23          	sw	a5,-36(s0)
     dac:	fec42783          	lw	a5,-20(s0)
     db0:	00178693          	addi	a3,a5,1
     db4:	fed42623          	sw	a3,-20(s0)
     db8:	00074703          	lbu	a4,0(a4)
     dbc:	fd842683          	lw	a3,-40(s0)
     dc0:	00f687b3          	add	a5,a3,a5
     dc4:	00e78823          	sb	a4,16(a5)
     dc8:	fdc42783          	lw	a5,-36(s0)
     dcc:	0007c783          	lbu	a5,0(a5)
     dd0:	02078863          	beqz	a5,e00 <parse_command+0x15c>
     dd4:	fdc42783          	lw	a5,-36(s0)
     dd8:	0007c703          	lbu	a4,0(a5)
     ddc:	02000793          	li	a5,32
     de0:	02f70063          	beq	a4,a5,e00 <parse_command+0x15c>
     de4:	fdc42783          	lw	a5,-36(s0)
     de8:	0007c703          	lbu	a4,0(a5)
     dec:	00900793          	li	a5,9
     df0:	00f70863          	beq	a4,a5,e00 <parse_command+0x15c>
     df4:	fec42703          	lw	a4,-20(s0)
     df8:	00e00793          	li	a5,14
     dfc:	fae7d2e3          	bge	a5,a4,da0 <parse_command+0xfc>
     e00:	fd842703          	lw	a4,-40(s0)
     e04:	fec42783          	lw	a5,-20(s0)
     e08:	00f707b3          	add	a5,a4,a5
     e0c:	00078823          	sb	zero,16(a5)
     e10:	0100006f          	j	e20 <parse_command+0x17c>
     e14:	fdc42783          	lw	a5,-36(s0)
     e18:	00178793          	addi	a5,a5,1
     e1c:	fcf42e23          	sw	a5,-36(s0)
     e20:	fdc42783          	lw	a5,-36(s0)
     e24:	0007c703          	lbu	a4,0(a5)
     e28:	02000793          	li	a5,32
     e2c:	fef704e3          	beq	a4,a5,e14 <parse_command+0x170>
     e30:	fdc42783          	lw	a5,-36(s0)
     e34:	0007c703          	lbu	a4,0(a5)
     e38:	00900793          	li	a5,9
     e3c:	fcf70ce3          	beq	a4,a5,e14 <parse_command+0x170>
     e40:	fe042623          	sw	zero,-20(s0)
     e44:	02c0006f          	j	e70 <parse_command+0x1cc>
     e48:	fdc42703          	lw	a4,-36(s0)
     e4c:	00170793          	addi	a5,a4,1
     e50:	fcf42e23          	sw	a5,-36(s0)
     e54:	fec42783          	lw	a5,-20(s0)
     e58:	00178693          	addi	a3,a5,1
     e5c:	fed42623          	sw	a3,-20(s0)
     e60:	00074703          	lbu	a4,0(a4)
     e64:	fd842683          	lw	a3,-40(s0)
     e68:	00f687b3          	add	a5,a3,a5
     e6c:	02e78023          	sb	a4,32(a5)
     e70:	fdc42783          	lw	a5,-36(s0)
     e74:	0007c783          	lbu	a5,0(a5)
     e78:	02078863          	beqz	a5,ea8 <parse_command+0x204>
     e7c:	fdc42783          	lw	a5,-36(s0)
     e80:	0007c703          	lbu	a4,0(a5)
     e84:	02000793          	li	a5,32
     e88:	02f70063          	beq	a4,a5,ea8 <parse_command+0x204>
     e8c:	fdc42783          	lw	a5,-36(s0)
     e90:	0007c703          	lbu	a4,0(a5)
     e94:	00900793          	li	a5,9
     e98:	00f70863          	beq	a4,a5,ea8 <parse_command+0x204>
     e9c:	fec42703          	lw	a4,-20(s0)
     ea0:	00e00793          	li	a5,14
     ea4:	fae7d2e3          	bge	a5,a4,e48 <parse_command+0x1a4>
     ea8:	fd842703          	lw	a4,-40(s0)
     eac:	fec42783          	lw	a5,-20(s0)
     eb0:	00f707b3          	add	a5,a4,a5
     eb4:	02078023          	sb	zero,32(a5)
     eb8:	0100006f          	j	ec8 <parse_command+0x224>
     ebc:	fdc42783          	lw	a5,-36(s0)
     ec0:	00178793          	addi	a5,a5,1
     ec4:	fcf42e23          	sw	a5,-36(s0)
     ec8:	fdc42783          	lw	a5,-36(s0)
     ecc:	0007c703          	lbu	a4,0(a5)
     ed0:	02000793          	li	a5,32
     ed4:	fef704e3          	beq	a4,a5,ebc <parse_command+0x218>
     ed8:	fdc42783          	lw	a5,-36(s0)
     edc:	0007c703          	lbu	a4,0(a5)
     ee0:	00900793          	li	a5,9
     ee4:	fcf70ce3          	beq	a4,a5,ebc <parse_command+0x218>
     ee8:	fe042623          	sw	zero,-20(s0)
     eec:	02c0006f          	j	f18 <parse_command+0x274>
     ef0:	fdc42703          	lw	a4,-36(s0)
     ef4:	00170793          	addi	a5,a4,1
     ef8:	fcf42e23          	sw	a5,-36(s0)
     efc:	fec42783          	lw	a5,-20(s0)
     f00:	00178693          	addi	a3,a5,1
     f04:	fed42623          	sw	a3,-20(s0)
     f08:	00074703          	lbu	a4,0(a4)
     f0c:	fd842683          	lw	a3,-40(s0)
     f10:	00f687b3          	add	a5,a3,a5
     f14:	02e78823          	sb	a4,48(a5)
     f18:	fdc42783          	lw	a5,-36(s0)
     f1c:	0007c783          	lbu	a5,0(a5)
     f20:	02078863          	beqz	a5,f50 <parse_command+0x2ac>
     f24:	fdc42783          	lw	a5,-36(s0)
     f28:	0007c703          	lbu	a4,0(a5)
     f2c:	02000793          	li	a5,32
     f30:	02f70063          	beq	a4,a5,f50 <parse_command+0x2ac>
     f34:	fdc42783          	lw	a5,-36(s0)
     f38:	0007c703          	lbu	a4,0(a5)
     f3c:	00900793          	li	a5,9
     f40:	00f70863          	beq	a4,a5,f50 <parse_command+0x2ac>
     f44:	fec42703          	lw	a4,-20(s0)
     f48:	00e00793          	li	a5,14
     f4c:	fae7d2e3          	bge	a5,a4,ef0 <parse_command+0x24c>
     f50:	fd842703          	lw	a4,-40(s0)
     f54:	fec42783          	lw	a5,-20(s0)
     f58:	00f707b3          	add	a5,a4,a5
     f5c:	02078823          	sb	zero,48(a5)
     f60:	00000793          	li	a5,0
     f64:	00078513          	mv	a0,a5
     f68:	02c12083          	lw	ra,44(sp)
     f6c:	02812403          	lw	s0,40(sp)
     f70:	03010113          	addi	sp,sp,48
     f74:	00008067          	ret

00000f78 <parse_hex>:
     f78:	fd010113          	addi	sp,sp,-48
     f7c:	02112623          	sw	ra,44(sp)
     f80:	02812423          	sw	s0,40(sp)
     f84:	03010413          	addi	s0,sp,48
     f88:	fca42e23          	sw	a0,-36(s0)
     f8c:	fcb42c23          	sw	a1,-40(s0)
     f90:	fdc42783          	lw	a5,-36(s0)
     f94:	00078663          	beqz	a5,fa0 <parse_hex+0x28>
     f98:	fd842783          	lw	a5,-40(s0)
     f9c:	00079663          	bnez	a5,fa8 <parse_hex+0x30>
     fa0:	fff00793          	li	a5,-1
     fa4:	1540006f          	j	10f8 <parse_hex+0x180>
     fa8:	fd842783          	lw	a5,-40(s0)
     fac:	0007a023          	sw	zero,0(a5)
     fb0:	fdc42783          	lw	a5,-36(s0)
     fb4:	0007c703          	lbu	a4,0(a5)
     fb8:	03000793          	li	a5,48
     fbc:	02f71c63          	bne	a4,a5,ff4 <parse_hex+0x7c>
     fc0:	fdc42783          	lw	a5,-36(s0)
     fc4:	00178793          	addi	a5,a5,1
     fc8:	0007c703          	lbu	a4,0(a5)
     fcc:	07800793          	li	a5,120
     fd0:	00f70c63          	beq	a4,a5,fe8 <parse_hex+0x70>
     fd4:	fdc42783          	lw	a5,-36(s0)
     fd8:	00178793          	addi	a5,a5,1
     fdc:	0007c703          	lbu	a4,0(a5)
     fe0:	05800793          	li	a5,88
     fe4:	00f71863          	bne	a4,a5,ff4 <parse_hex+0x7c>
     fe8:	fdc42783          	lw	a5,-36(s0)
     fec:	00278793          	addi	a5,a5,2
     ff0:	fcf42e23          	sw	a5,-36(s0)
     ff4:	fe042623          	sw	zero,-20(s0)
     ff8:	0e00006f          	j	10d8 <parse_hex+0x160>
     ffc:	fdc42783          	lw	a5,-36(s0)
    1000:	00178713          	addi	a4,a5,1
    1004:	fce42e23          	sw	a4,-36(s0)
    1008:	0007c783          	lbu	a5,0(a5)
    100c:	fef405a3          	sb	a5,-21(s0)
    1010:	feb44703          	lbu	a4,-21(s0)
    1014:	02f00793          	li	a5,47
    1018:	02e7fe63          	bgeu	a5,a4,1054 <parse_hex+0xdc>
    101c:	feb44703          	lbu	a4,-21(s0)
    1020:	03900793          	li	a5,57
    1024:	02e7e863          	bltu	a5,a4,1054 <parse_hex+0xdc>
    1028:	fd842783          	lw	a5,-40(s0)
    102c:	0007a783          	lw	a5,0(a5)
    1030:	00479713          	slli	a4,a5,0x4
    1034:	feb44783          	lbu	a5,-21(s0)
    1038:	00f707b3          	add	a5,a4,a5
    103c:	fd078713          	addi	a4,a5,-48
    1040:	fd842783          	lw	a5,-40(s0)
    1044:	00e7a023          	sw	a4,0(a5)
    1048:	00100793          	li	a5,1
    104c:	fef42623          	sw	a5,-20(s0)
    1050:	0880006f          	j	10d8 <parse_hex+0x160>
    1054:	feb44703          	lbu	a4,-21(s0)
    1058:	06000793          	li	a5,96
    105c:	02e7fe63          	bgeu	a5,a4,1098 <parse_hex+0x120>
    1060:	feb44703          	lbu	a4,-21(s0)
    1064:	06600793          	li	a5,102
    1068:	02e7e863          	bltu	a5,a4,1098 <parse_hex+0x120>
    106c:	fd842783          	lw	a5,-40(s0)
    1070:	0007a783          	lw	a5,0(a5)
    1074:	00479713          	slli	a4,a5,0x4
    1078:	feb44783          	lbu	a5,-21(s0)
    107c:	00f707b3          	add	a5,a4,a5
    1080:	fa978713          	addi	a4,a5,-87
    1084:	fd842783          	lw	a5,-40(s0)
    1088:	00e7a023          	sw	a4,0(a5)
    108c:	00100793          	li	a5,1
    1090:	fef42623          	sw	a5,-20(s0)
    1094:	0440006f          	j	10d8 <parse_hex+0x160>
    1098:	feb44703          	lbu	a4,-21(s0)
    109c:	04000793          	li	a5,64
    10a0:	04e7f263          	bgeu	a5,a4,10e4 <parse_hex+0x16c>
    10a4:	feb44703          	lbu	a4,-21(s0)
    10a8:	04600793          	li	a5,70
    10ac:	02e7ec63          	bltu	a5,a4,10e4 <parse_hex+0x16c>
    10b0:	fd842783          	lw	a5,-40(s0)
    10b4:	0007a783          	lw	a5,0(a5)
    10b8:	00479713          	slli	a4,a5,0x4
    10bc:	feb44783          	lbu	a5,-21(s0)
    10c0:	00f707b3          	add	a5,a4,a5
    10c4:	fc978713          	addi	a4,a5,-55
    10c8:	fd842783          	lw	a5,-40(s0)
    10cc:	00e7a023          	sw	a4,0(a5)
    10d0:	00100793          	li	a5,1
    10d4:	fef42623          	sw	a5,-20(s0)
    10d8:	fdc42783          	lw	a5,-36(s0)
    10dc:	0007c783          	lbu	a5,0(a5)
    10e0:	f0079ee3          	bnez	a5,ffc <parse_hex+0x84>
    10e4:	fec42783          	lw	a5,-20(s0)
    10e8:	00078663          	beqz	a5,10f4 <parse_hex+0x17c>
    10ec:	00000793          	li	a5,0
    10f0:	0080006f          	j	10f8 <parse_hex+0x180>
    10f4:	fff00793          	li	a5,-1
    10f8:	00078513          	mv	a0,a5
    10fc:	02c12083          	lw	ra,44(sp)
    1100:	02812403          	lw	s0,40(sp)
    1104:	03010113          	addi	sp,sp,48
    1108:	00008067          	ret

0000110c <handle_gpio_command>:
    110c:	fd010113          	addi	sp,sp,-48
    1110:	02112623          	sw	ra,44(sp)
    1114:	02812423          	sw	s0,40(sp)
    1118:	03010413          	addi	s0,sp,48
    111c:	fca42e23          	sw	a0,-36(s0)
    1120:	fdc42783          	lw	a5,-36(s0)
    1124:	01078713          	addi	a4,a5,16
    1128:	100007b7          	lui	a5,0x10000
    112c:	03078593          	addi	a1,a5,48 # 10000030 <STACK_TOP+0xfff8030>
    1130:	00070513          	mv	a0,a4
    1134:	b94ff0ef          	jal	4c8 <strcmp>
    1138:	00050793          	mv	a5,a0
    113c:	02079a63          	bnez	a5,1170 <handle_gpio_command+0x64>
    1140:	87cff0ef          	jal	1bc <gpio_read_in>
    1144:	fea42623          	sw	a0,-20(s0)
    1148:	100007b7          	lui	a5,0x10000
    114c:	03478513          	addi	a0,a5,52 # 10000034 <STACK_TOP+0xfff8034>
    1150:	f11fe0ef          	jal	60 <print_str>
    1154:	00800593          	li	a1,8
    1158:	fec42503          	lw	a0,-20(s0)
    115c:	f59fe0ef          	jal	b4 <print_hex>
    1160:	100007b7          	lui	a5,0x10000
    1164:	04878513          	addi	a0,a5,72 # 10000048 <STACK_TOP+0xfff8048>
    1168:	ef9fe0ef          	jal	60 <print_str>
    116c:	0b40006f          	j	1220 <handle_gpio_command+0x114>
    1170:	fdc42783          	lw	a5,-36(s0)
    1174:	01078713          	addi	a4,a5,16
    1178:	100007b7          	lui	a5,0x10000
    117c:	04c78593          	addi	a1,a5,76 # 1000004c <STACK_TOP+0xfff804c>
    1180:	00070513          	mv	a0,a4
    1184:	b44ff0ef          	jal	4c8 <strcmp>
    1188:	00050793          	mv	a5,a0
    118c:	08079463          	bnez	a5,1214 <handle_gpio_command+0x108>
    1190:	fdc42783          	lw	a5,-36(s0)
    1194:	0207c783          	lbu	a5,32(a5)
    1198:	00079a63          	bnez	a5,11ac <handle_gpio_command+0xa0>
    119c:	100007b7          	lui	a5,0x10000
    11a0:	05078513          	addi	a0,a5,80 # 10000050 <STACK_TOP+0xfff8050>
    11a4:	ebdfe0ef          	jal	60 <print_str>
    11a8:	0780006f          	j	1220 <handle_gpio_command+0x114>
    11ac:	fdc42783          	lw	a5,-36(s0)
    11b0:	02078793          	addi	a5,a5,32
    11b4:	fe840713          	addi	a4,s0,-24
    11b8:	00070593          	mv	a1,a4
    11bc:	00078513          	mv	a0,a5
    11c0:	db9ff0ef          	jal	f78 <parse_hex>
    11c4:	00050793          	mv	a5,a0
    11c8:	00078a63          	beqz	a5,11dc <handle_gpio_command+0xd0>
    11cc:	100007b7          	lui	a5,0x10000
    11d0:	08c78513          	addi	a0,a5,140 # 1000008c <STACK_TOP+0xfff808c>
    11d4:	e8dfe0ef          	jal	60 <print_str>
    11d8:	0480006f          	j	1220 <handle_gpio_command+0x114>
    11dc:	fe842783          	lw	a5,-24(s0)
    11e0:	00078513          	mv	a0,a5
    11e4:	804ff0ef          	jal	1e8 <gpio_write_out>
    11e8:	100007b7          	lui	a5,0x10000
    11ec:	0cc78513          	addi	a0,a5,204 # 100000cc <STACK_TOP+0xfff80cc>
    11f0:	e71fe0ef          	jal	60 <print_str>
    11f4:	fe842783          	lw	a5,-24(s0)
    11f8:	00800593          	li	a1,8
    11fc:	00078513          	mv	a0,a5
    1200:	eb5fe0ef          	jal	b4 <print_hex>
    1204:	100007b7          	lui	a5,0x10000
    1208:	0e478513          	addi	a0,a5,228 # 100000e4 <STACK_TOP+0xfff80e4>
    120c:	e55fe0ef          	jal	60 <print_str>
    1210:	0100006f          	j	1220 <handle_gpio_command+0x114>
    1214:	100007b7          	lui	a5,0x10000
    1218:	10078513          	addi	a0,a5,256 # 10000100 <STACK_TOP+0xfff8100>
    121c:	e45fe0ef          	jal	60 <print_str>
    1220:	02c12083          	lw	ra,44(sp)
    1224:	02812403          	lw	s0,40(sp)
    1228:	03010113          	addi	sp,sp,48
    122c:	00008067          	ret

00001230 <handle_mem_command>:
    1230:	fb010113          	addi	sp,sp,-80
    1234:	04112623          	sw	ra,76(sp)
    1238:	04812423          	sw	s0,72(sp)
    123c:	05010413          	addi	s0,sp,80
    1240:	faa42e23          	sw	a0,-68(s0)
    1244:	fbc42783          	lw	a5,-68(s0)
    1248:	01078713          	addi	a4,a5,16
    124c:	100007b7          	lui	a5,0x10000
    1250:	13c78593          	addi	a1,a5,316 # 1000013c <STACK_TOP+0xfff813c>
    1254:	00070513          	mv	a0,a4
    1258:	a70ff0ef          	jal	4c8 <strcmp>
    125c:	00050793          	mv	a5,a0
    1260:	02078263          	beqz	a5,1284 <handle_mem_command+0x54>
    1264:	fbc42783          	lw	a5,-68(s0)
    1268:	01078713          	addi	a4,a5,16
    126c:	100007b7          	lui	a5,0x10000
    1270:	14478593          	addi	a1,a5,324 # 10000144 <STACK_TOP+0xfff8144>
    1274:	00070513          	mv	a0,a4
    1278:	a50ff0ef          	jal	4c8 <strcmp>
    127c:	00050793          	mv	a5,a0
    1280:	08079463          	bnez	a5,1308 <handle_mem_command+0xd8>
    1284:	fbc42783          	lw	a5,-68(s0)
    1288:	02078793          	addi	a5,a5,32
    128c:	fe040713          	addi	a4,s0,-32
    1290:	00070593          	mv	a1,a4
    1294:	00078513          	mv	a0,a5
    1298:	ce1ff0ef          	jal	f78 <parse_hex>
    129c:	00050793          	mv	a5,a0
    12a0:	00078a63          	beqz	a5,12b4 <handle_mem_command+0x84>
    12a4:	100007b7          	lui	a5,0x10000
    12a8:	14c78513          	addi	a0,a5,332 # 1000014c <STACK_TOP+0xfff814c>
    12ac:	db5fe0ef          	jal	60 <print_str>
    12b0:	4c80006f          	j	1778 <handle_mem_command+0x548>
    12b4:	fe042783          	lw	a5,-32(s0)
    12b8:	00078513          	mv	a0,a5
    12bc:	b08ff0ef          	jal	5c4 <read_mem>
    12c0:	fea42223          	sw	a0,-28(s0)
    12c4:	100007b7          	lui	a5,0x10000
    12c8:	18478513          	addi	a0,a5,388 # 10000184 <STACK_TOP+0xfff8184>
    12cc:	d95fe0ef          	jal	60 <print_str>
    12d0:	fe042783          	lw	a5,-32(s0)
    12d4:	00800593          	li	a1,8
    12d8:	00078513          	mv	a0,a5
    12dc:	dd9fe0ef          	jal	b4 <print_hex>
    12e0:	100007b7          	lui	a5,0x10000
    12e4:	19078513          	addi	a0,a5,400 # 10000190 <STACK_TOP+0xfff8190>
    12e8:	d79fe0ef          	jal	60 <print_str>
    12ec:	00800593          	li	a1,8
    12f0:	fe442503          	lw	a0,-28(s0)
    12f4:	dc1fe0ef          	jal	b4 <print_hex>
    12f8:	100007b7          	lui	a5,0x10000
    12fc:	04878513          	addi	a0,a5,72 # 10000048 <STACK_TOP+0xfff8048>
    1300:	d61fe0ef          	jal	60 <print_str>
    1304:	4740006f          	j	1778 <handle_mem_command+0x548>
    1308:	fbc42783          	lw	a5,-68(s0)
    130c:	01078713          	addi	a4,a5,16
    1310:	100007b7          	lui	a5,0x10000
    1314:	19878593          	addi	a1,a5,408 # 10000198 <STACK_TOP+0xfff8198>
    1318:	00070513          	mv	a0,a4
    131c:	9acff0ef          	jal	4c8 <strcmp>
    1320:	00050793          	mv	a5,a0
    1324:	08079863          	bnez	a5,13b4 <handle_mem_command+0x184>
    1328:	fbc42783          	lw	a5,-68(s0)
    132c:	02078793          	addi	a5,a5,32
    1330:	fdc40713          	addi	a4,s0,-36
    1334:	00070593          	mv	a1,a4
    1338:	00078513          	mv	a0,a5
    133c:	c3dff0ef          	jal	f78 <parse_hex>
    1340:	00050793          	mv	a5,a0
    1344:	00078a63          	beqz	a5,1358 <handle_mem_command+0x128>
    1348:	100007b7          	lui	a5,0x10000
    134c:	1a078513          	addi	a0,a5,416 # 100001a0 <STACK_TOP+0xfff81a0>
    1350:	d11fe0ef          	jal	60 <print_str>
    1354:	4240006f          	j	1778 <handle_mem_command+0x548>
    1358:	fdc42783          	lw	a5,-36(s0)
    135c:	00078513          	mv	a0,a5
    1360:	ad0ff0ef          	jal	630 <read_mem16>
    1364:	00050793          	mv	a5,a0
    1368:	fef41423          	sh	a5,-24(s0)
    136c:	100007b7          	lui	a5,0x10000
    1370:	1d878513          	addi	a0,a5,472 # 100001d8 <STACK_TOP+0xfff81d8>
    1374:	cedfe0ef          	jal	60 <print_str>
    1378:	fdc42783          	lw	a5,-36(s0)
    137c:	00800593          	li	a1,8
    1380:	00078513          	mv	a0,a5
    1384:	d31fe0ef          	jal	b4 <print_hex>
    1388:	100007b7          	lui	a5,0x10000
    138c:	19078513          	addi	a0,a5,400 # 10000190 <STACK_TOP+0xfff8190>
    1390:	cd1fe0ef          	jal	60 <print_str>
    1394:	fe845783          	lhu	a5,-24(s0)
    1398:	00400593          	li	a1,4
    139c:	00078513          	mv	a0,a5
    13a0:	d15fe0ef          	jal	b4 <print_hex>
    13a4:	100007b7          	lui	a5,0x10000
    13a8:	04878513          	addi	a0,a5,72 # 10000048 <STACK_TOP+0xfff8048>
    13ac:	cb5fe0ef          	jal	60 <print_str>
    13b0:	3c80006f          	j	1778 <handle_mem_command+0x548>
    13b4:	fbc42783          	lw	a5,-68(s0)
    13b8:	01078713          	addi	a4,a5,16
    13bc:	100007b7          	lui	a5,0x10000
    13c0:	1e478593          	addi	a1,a5,484 # 100001e4 <STACK_TOP+0xfff81e4>
    13c4:	00070513          	mv	a0,a4
    13c8:	900ff0ef          	jal	4c8 <strcmp>
    13cc:	00050793          	mv	a5,a0
    13d0:	08079863          	bnez	a5,1460 <handle_mem_command+0x230>
    13d4:	fbc42783          	lw	a5,-68(s0)
    13d8:	02078793          	addi	a5,a5,32
    13dc:	fd840713          	addi	a4,s0,-40
    13e0:	00070593          	mv	a1,a4
    13e4:	00078513          	mv	a0,a5
    13e8:	b91ff0ef          	jal	f78 <parse_hex>
    13ec:	00050793          	mv	a5,a0
    13f0:	00078a63          	beqz	a5,1404 <handle_mem_command+0x1d4>
    13f4:	100007b7          	lui	a5,0x10000
    13f8:	1ec78513          	addi	a0,a5,492 # 100001ec <STACK_TOP+0xfff81ec>
    13fc:	c65fe0ef          	jal	60 <print_str>
    1400:	3780006f          	j	1778 <handle_mem_command+0x548>
    1404:	fd842783          	lw	a5,-40(s0)
    1408:	00078513          	mv	a0,a5
    140c:	a98ff0ef          	jal	6a4 <read_mem8>
    1410:	00050793          	mv	a5,a0
    1414:	fef405a3          	sb	a5,-21(s0)
    1418:	100007b7          	lui	a5,0x10000
    141c:	22078513          	addi	a0,a5,544 # 10000220 <STACK_TOP+0xfff8220>
    1420:	c41fe0ef          	jal	60 <print_str>
    1424:	fd842783          	lw	a5,-40(s0)
    1428:	00800593          	li	a1,8
    142c:	00078513          	mv	a0,a5
    1430:	c85fe0ef          	jal	b4 <print_hex>
    1434:	100007b7          	lui	a5,0x10000
    1438:	19078513          	addi	a0,a5,400 # 10000190 <STACK_TOP+0xfff8190>
    143c:	c25fe0ef          	jal	60 <print_str>
    1440:	feb44783          	lbu	a5,-21(s0)
    1444:	00200593          	li	a1,2
    1448:	00078513          	mv	a0,a5
    144c:	c69fe0ef          	jal	b4 <print_hex>
    1450:	100007b7          	lui	a5,0x10000
    1454:	04878513          	addi	a0,a5,72 # 10000048 <STACK_TOP+0xfff8048>
    1458:	c09fe0ef          	jal	60 <print_str>
    145c:	31c0006f          	j	1778 <handle_mem_command+0x548>
    1460:	fbc42783          	lw	a5,-68(s0)
    1464:	01078713          	addi	a4,a5,16
    1468:	100007b7          	lui	a5,0x10000
    146c:	22c78593          	addi	a1,a5,556 # 1000022c <STACK_TOP+0xfff822c>
    1470:	00070513          	mv	a0,a4
    1474:	854ff0ef          	jal	4c8 <strcmp>
    1478:	00050793          	mv	a5,a0
    147c:	02078263          	beqz	a5,14a0 <handle_mem_command+0x270>
    1480:	fbc42783          	lw	a5,-68(s0)
    1484:	01078713          	addi	a4,a5,16
    1488:	100007b7          	lui	a5,0x10000
    148c:	23478593          	addi	a1,a5,564 # 10000234 <STACK_TOP+0xfff8234>
    1490:	00070513          	mv	a0,a4
    1494:	834ff0ef          	jal	4c8 <strcmp>
    1498:	00050793          	mv	a5,a0
    149c:	0c079c63          	bnez	a5,1574 <handle_mem_command+0x344>
    14a0:	fbc42783          	lw	a5,-68(s0)
    14a4:	0207c783          	lbu	a5,32(a5)
    14a8:	00078863          	beqz	a5,14b8 <handle_mem_command+0x288>
    14ac:	fbc42783          	lw	a5,-68(s0)
    14b0:	0307c783          	lbu	a5,48(a5)
    14b4:	00079a63          	bnez	a5,14c8 <handle_mem_command+0x298>
    14b8:	100007b7          	lui	a5,0x10000
    14bc:	23c78513          	addi	a0,a5,572 # 1000023c <STACK_TOP+0xfff823c>
    14c0:	ba1fe0ef          	jal	60 <print_str>
    14c4:	2b40006f          	j	1778 <handle_mem_command+0x548>
    14c8:	fbc42783          	lw	a5,-68(s0)
    14cc:	02078793          	addi	a5,a5,32
    14d0:	fd440713          	addi	a4,s0,-44
    14d4:	00070593          	mv	a1,a4
    14d8:	00078513          	mv	a0,a5
    14dc:	a9dff0ef          	jal	f78 <parse_hex>
    14e0:	00050793          	mv	a5,a0
    14e4:	02079263          	bnez	a5,1508 <handle_mem_command+0x2d8>
    14e8:	fbc42783          	lw	a5,-68(s0)
    14ec:	03078793          	addi	a5,a5,48
    14f0:	fd040713          	addi	a4,s0,-48
    14f4:	00070593          	mv	a1,a4
    14f8:	00078513          	mv	a0,a5
    14fc:	a7dff0ef          	jal	f78 <parse_hex>
    1500:	00050793          	mv	a5,a0
    1504:	00078a63          	beqz	a5,1518 <handle_mem_command+0x2e8>
    1508:	100007b7          	lui	a5,0x10000
    150c:	28078513          	addi	a0,a5,640 # 10000280 <STACK_TOP+0xfff8280>
    1510:	b51fe0ef          	jal	60 <print_str>
    1514:	2640006f          	j	1778 <handle_mem_command+0x548>
    1518:	fd442783          	lw	a5,-44(s0)
    151c:	fd042703          	lw	a4,-48(s0)
    1520:	00070593          	mv	a1,a4
    1524:	00078513          	mv	a0,a5
    1528:	864ff0ef          	jal	58c <write_mem>
    152c:	100007b7          	lui	a5,0x10000
    1530:	18478513          	addi	a0,a5,388 # 10000184 <STACK_TOP+0xfff8184>
    1534:	b2dfe0ef          	jal	60 <print_str>
    1538:	fd442783          	lw	a5,-44(s0)
    153c:	00800593          	li	a1,8
    1540:	00078513          	mv	a0,a5
    1544:	b71fe0ef          	jal	b4 <print_hex>
    1548:	100007b7          	lui	a5,0x10000
    154c:	2d078513          	addi	a0,a5,720 # 100002d0 <STACK_TOP+0xfff82d0>
    1550:	b11fe0ef          	jal	60 <print_str>
    1554:	fd042783          	lw	a5,-48(s0)
    1558:	00800593          	li	a1,8
    155c:	00078513          	mv	a0,a5
    1560:	b55fe0ef          	jal	b4 <print_hex>
    1564:	100007b7          	lui	a5,0x10000
    1568:	2d878513          	addi	a0,a5,728 # 100002d8 <STACK_TOP+0xfff82d8>
    156c:	af5fe0ef          	jal	60 <print_str>
    1570:	2080006f          	j	1778 <handle_mem_command+0x548>
    1574:	fbc42783          	lw	a5,-68(s0)
    1578:	01078713          	addi	a4,a5,16
    157c:	100007b7          	lui	a5,0x10000
    1580:	2f478593          	addi	a1,a5,756 # 100002f4 <STACK_TOP+0xfff82f4>
    1584:	00070513          	mv	a0,a4
    1588:	f41fe0ef          	jal	4c8 <strcmp>
    158c:	00050793          	mv	a5,a0
    1590:	0e079063          	bnez	a5,1670 <handle_mem_command+0x440>
    1594:	fbc42783          	lw	a5,-68(s0)
    1598:	0207c783          	lbu	a5,32(a5)
    159c:	00078863          	beqz	a5,15ac <handle_mem_command+0x37c>
    15a0:	fbc42783          	lw	a5,-68(s0)
    15a4:	0307c783          	lbu	a5,48(a5)
    15a8:	00079a63          	bnez	a5,15bc <handle_mem_command+0x38c>
    15ac:	100007b7          	lui	a5,0x10000
    15b0:	2fc78513          	addi	a0,a5,764 # 100002fc <STACK_TOP+0xfff82fc>
    15b4:	aadfe0ef          	jal	60 <print_str>
    15b8:	1c00006f          	j	1778 <handle_mem_command+0x548>
    15bc:	fbc42783          	lw	a5,-68(s0)
    15c0:	02078793          	addi	a5,a5,32
    15c4:	fcc40713          	addi	a4,s0,-52
    15c8:	00070593          	mv	a1,a4
    15cc:	00078513          	mv	a0,a5
    15d0:	9a9ff0ef          	jal	f78 <parse_hex>
    15d4:	00050793          	mv	a5,a0
    15d8:	02079263          	bnez	a5,15fc <handle_mem_command+0x3cc>
    15dc:	fbc42783          	lw	a5,-68(s0)
    15e0:	03078793          	addi	a5,a5,48
    15e4:	fc840713          	addi	a4,s0,-56
    15e8:	00070593          	mv	a1,a4
    15ec:	00078513          	mv	a0,a5
    15f0:	989ff0ef          	jal	f78 <parse_hex>
    15f4:	00050793          	mv	a5,a0
    15f8:	00078a63          	beqz	a5,160c <handle_mem_command+0x3dc>
    15fc:	100007b7          	lui	a5,0x10000
    1600:	34078513          	addi	a0,a5,832 # 10000340 <STACK_TOP+0xfff8340>
    1604:	a5dfe0ef          	jal	60 <print_str>
    1608:	1700006f          	j	1778 <handle_mem_command+0x548>
    160c:	fc842783          	lw	a5,-56(s0)
    1610:	fef41623          	sh	a5,-20(s0)
    1614:	fcc42783          	lw	a5,-52(s0)
    1618:	fec45703          	lhu	a4,-20(s0)
    161c:	00070593          	mv	a1,a4
    1620:	00078513          	mv	a0,a5
    1624:	fd1fe0ef          	jal	5f4 <write_mem16>
    1628:	100007b7          	lui	a5,0x10000
    162c:	1d878513          	addi	a0,a5,472 # 100001d8 <STACK_TOP+0xfff81d8>
    1630:	a31fe0ef          	jal	60 <print_str>
    1634:	fcc42783          	lw	a5,-52(s0)
    1638:	00800593          	li	a1,8
    163c:	00078513          	mv	a0,a5
    1640:	a75fe0ef          	jal	b4 <print_hex>
    1644:	100007b7          	lui	a5,0x10000
    1648:	2d078513          	addi	a0,a5,720 # 100002d0 <STACK_TOP+0xfff82d0>
    164c:	a15fe0ef          	jal	60 <print_str>
    1650:	fec45783          	lhu	a5,-20(s0)
    1654:	00400593          	li	a1,4
    1658:	00078513          	mv	a0,a5
    165c:	a59fe0ef          	jal	b4 <print_hex>
    1660:	100007b7          	lui	a5,0x10000
    1664:	38c78513          	addi	a0,a5,908 # 1000038c <STACK_TOP+0xfff838c>
    1668:	9f9fe0ef          	jal	60 <print_str>
    166c:	10c0006f          	j	1778 <handle_mem_command+0x548>
    1670:	fbc42783          	lw	a5,-68(s0)
    1674:	01078713          	addi	a4,a5,16
    1678:	100007b7          	lui	a5,0x10000
    167c:	3a878593          	addi	a1,a5,936 # 100003a8 <STACK_TOP+0xfff83a8>
    1680:	00070513          	mv	a0,a4
    1684:	e45fe0ef          	jal	4c8 <strcmp>
    1688:	00050793          	mv	a5,a0
    168c:	0e079063          	bnez	a5,176c <handle_mem_command+0x53c>
    1690:	fbc42783          	lw	a5,-68(s0)
    1694:	0207c783          	lbu	a5,32(a5)
    1698:	00078863          	beqz	a5,16a8 <handle_mem_command+0x478>
    169c:	fbc42783          	lw	a5,-68(s0)
    16a0:	0307c783          	lbu	a5,48(a5)
    16a4:	00079a63          	bnez	a5,16b8 <handle_mem_command+0x488>
    16a8:	100007b7          	lui	a5,0x10000
    16ac:	3b078513          	addi	a0,a5,944 # 100003b0 <STACK_TOP+0xfff83b0>
    16b0:	9b1fe0ef          	jal	60 <print_str>
    16b4:	0c40006f          	j	1778 <handle_mem_command+0x548>
    16b8:	fbc42783          	lw	a5,-68(s0)
    16bc:	02078793          	addi	a5,a5,32
    16c0:	fc440713          	addi	a4,s0,-60
    16c4:	00070593          	mv	a1,a4
    16c8:	00078513          	mv	a0,a5
    16cc:	8adff0ef          	jal	f78 <parse_hex>
    16d0:	00050793          	mv	a5,a0
    16d4:	02079263          	bnez	a5,16f8 <handle_mem_command+0x4c8>
    16d8:	fbc42783          	lw	a5,-68(s0)
    16dc:	03078793          	addi	a5,a5,48
    16e0:	fc040713          	addi	a4,s0,-64
    16e4:	00070593          	mv	a1,a4
    16e8:	00078513          	mv	a0,a5
    16ec:	88dff0ef          	jal	f78 <parse_hex>
    16f0:	00050793          	mv	a5,a0
    16f4:	00078a63          	beqz	a5,1708 <handle_mem_command+0x4d8>
    16f8:	100007b7          	lui	a5,0x10000
    16fc:	3f478513          	addi	a0,a5,1012 # 100003f4 <STACK_TOP+0xfff83f4>
    1700:	961fe0ef          	jal	60 <print_str>
    1704:	0740006f          	j	1778 <handle_mem_command+0x548>
    1708:	fc042783          	lw	a5,-64(s0)
    170c:	fef407a3          	sb	a5,-17(s0)
    1710:	fc442783          	lw	a5,-60(s0)
    1714:	fef44703          	lbu	a4,-17(s0)
    1718:	00070593          	mv	a1,a4
    171c:	00078513          	mv	a0,a5
    1720:	f49fe0ef          	jal	668 <write_mem8>
    1724:	100007b7          	lui	a5,0x10000
    1728:	22078513          	addi	a0,a5,544 # 10000220 <STACK_TOP+0xfff8220>
    172c:	935fe0ef          	jal	60 <print_str>
    1730:	fc442783          	lw	a5,-60(s0)
    1734:	00800593          	li	a1,8
    1738:	00078513          	mv	a0,a5
    173c:	979fe0ef          	jal	b4 <print_hex>
    1740:	100007b7          	lui	a5,0x10000
    1744:	2d078513          	addi	a0,a5,720 # 100002d0 <STACK_TOP+0xfff82d0>
    1748:	919fe0ef          	jal	60 <print_str>
    174c:	fef44783          	lbu	a5,-17(s0)
    1750:	00200593          	li	a1,2
    1754:	00078513          	mv	a0,a5
    1758:	95dfe0ef          	jal	b4 <print_hex>
    175c:	100007b7          	lui	a5,0x10000
    1760:	44078513          	addi	a0,a5,1088 # 10000440 <STACK_TOP+0xfff8440>
    1764:	8fdfe0ef          	jal	60 <print_str>
    1768:	0100006f          	j	1778 <handle_mem_command+0x548>
    176c:	100007b7          	lui	a5,0x10000
    1770:	45878513          	addi	a0,a5,1112 # 10000458 <STACK_TOP+0xfff8458>
    1774:	8edfe0ef          	jal	60 <print_str>
    1778:	04c12083          	lw	ra,76(sp)
    177c:	04812403          	lw	s0,72(sp)
    1780:	05010113          	addi	sp,sp,80
    1784:	00008067          	ret

00001788 <handle_pwm_command>:
    1788:	fd010113          	addi	sp,sp,-48
    178c:	02112623          	sw	ra,44(sp)
    1790:	02812423          	sw	s0,40(sp)
    1794:	03010413          	addi	s0,sp,48
    1798:	fca42e23          	sw	a0,-36(s0)
    179c:	fdc42783          	lw	a5,-36(s0)
    17a0:	01078713          	addi	a4,a5,16
    17a4:	100007b7          	lui	a5,0x10000
    17a8:	4ac78593          	addi	a1,a5,1196 # 100004ac <STACK_TOP+0xfff84ac>
    17ac:	00070513          	mv	a0,a4
    17b0:	d19fe0ef          	jal	4c8 <strcmp>
    17b4:	00050793          	mv	a5,a0
    17b8:	14079663          	bnez	a5,1904 <handle_pwm_command+0x17c>
    17bc:	fdc42783          	lw	a5,-36(s0)
    17c0:	0207c783          	lbu	a5,32(a5)
    17c4:	00078863          	beqz	a5,17d4 <handle_pwm_command+0x4c>
    17c8:	fdc42783          	lw	a5,-36(s0)
    17cc:	0307c783          	lbu	a5,48(a5)
    17d0:	00079a63          	bnez	a5,17e4 <handle_pwm_command+0x5c>
    17d4:	100007b7          	lui	a5,0x10000
    17d8:	4b078513          	addi	a0,a5,1200 # 100004b0 <STACK_TOP+0xfff84b0>
    17dc:	885fe0ef          	jal	60 <print_str>
    17e0:	1300006f          	j	1910 <handle_pwm_command+0x188>
    17e4:	fe042623          	sw	zero,-20(s0)
    17e8:	fe042423          	sw	zero,-24(s0)
    17ec:	fdc42783          	lw	a5,-36(s0)
    17f0:	02078793          	addi	a5,a5,32
    17f4:	fec40713          	addi	a4,s0,-20
    17f8:	00070593          	mv	a1,a4
    17fc:	00078513          	mv	a0,a5
    1800:	f78ff0ef          	jal	f78 <parse_hex>
    1804:	00050793          	mv	a5,a0
    1808:	02078a63          	beqz	a5,183c <handle_pwm_command+0xb4>
    180c:	fdc42783          	lw	a5,-36(s0)
    1810:	02078793          	addi	a5,a5,32
    1814:	fec40713          	addi	a4,s0,-20
    1818:	00070593          	mv	a1,a4
    181c:	00078513          	mv	a0,a5
    1820:	918ff0ef          	jal	938 <parse_str_uint>
    1824:	00050793          	mv	a5,a0
    1828:	00078a63          	beqz	a5,183c <handle_pwm_command+0xb4>
    182c:	100007b7          	lui	a5,0x10000
    1830:	4ec78513          	addi	a0,a5,1260 # 100004ec <STACK_TOP+0xfff84ec>
    1834:	82dfe0ef          	jal	60 <print_str>
    1838:	0d80006f          	j	1910 <handle_pwm_command+0x188>
    183c:	fdc42783          	lw	a5,-36(s0)
    1840:	03078793          	addi	a5,a5,48
    1844:	fe840713          	addi	a4,s0,-24
    1848:	00070593          	mv	a1,a4
    184c:	00078513          	mv	a0,a5
    1850:	f28ff0ef          	jal	f78 <parse_hex>
    1854:	00050793          	mv	a5,a0
    1858:	02078a63          	beqz	a5,188c <handle_pwm_command+0x104>
    185c:	fdc42783          	lw	a5,-36(s0)
    1860:	03078793          	addi	a5,a5,48
    1864:	fe840713          	addi	a4,s0,-24
    1868:	00070593          	mv	a1,a4
    186c:	00078513          	mv	a0,a5
    1870:	8c8ff0ef          	jal	938 <parse_str_uint>
    1874:	00050793          	mv	a5,a0
    1878:	00078a63          	beqz	a5,188c <handle_pwm_command+0x104>
    187c:	100007b7          	lui	a5,0x10000
    1880:	51078513          	addi	a0,a5,1296 # 10000510 <STACK_TOP+0xfff8510>
    1884:	fdcfe0ef          	jal	60 <print_str>
    1888:	0880006f          	j	1910 <handle_pwm_command+0x188>
    188c:	fec42703          	lw	a4,-20(s0)
    1890:	00100793          	li	a5,1
    1894:	00e7fa63          	bgeu	a5,a4,18a8 <handle_pwm_command+0x120>
    1898:	100007b7          	lui	a5,0x10000
    189c:	53478513          	addi	a0,a5,1332 # 10000534 <STACK_TOP+0xfff8534>
    18a0:	fc0fe0ef          	jal	60 <print_str>
    18a4:	06c0006f          	j	1910 <handle_pwm_command+0x188>
    18a8:	fec42783          	lw	a5,-20(s0)
    18ac:	fe842703          	lw	a4,-24(s0)
    18b0:	00070593          	mv	a1,a4
    18b4:	00078513          	mv	a0,a5
    18b8:	810ff0ef          	jal	8c8 <pwm_write_duty>
    18bc:	100007b7          	lui	a5,0x10000
    18c0:	55478513          	addi	a0,a5,1364 # 10000554 <STACK_TOP+0xfff8554>
    18c4:	f9cfe0ef          	jal	60 <print_str>
    18c8:	fec42783          	lw	a5,-20(s0)
    18cc:	00200593          	li	a1,2
    18d0:	00078513          	mv	a0,a5
    18d4:	fe0fe0ef          	jal	b4 <print_hex>
    18d8:	100007b7          	lui	a5,0x10000
    18dc:	56478513          	addi	a0,a5,1380 # 10000564 <STACK_TOP+0xfff8564>
    18e0:	f80fe0ef          	jal	60 <print_str>
    18e4:	fe842783          	lw	a5,-24(s0)
    18e8:	00800593          	li	a1,8
    18ec:	00078513          	mv	a0,a5
    18f0:	fc4fe0ef          	jal	b4 <print_hex>
    18f4:	100007b7          	lui	a5,0x10000
    18f8:	04878513          	addi	a0,a5,72 # 10000048 <STACK_TOP+0xfff8048>
    18fc:	f64fe0ef          	jal	60 <print_str>
    1900:	0100006f          	j	1910 <handle_pwm_command+0x188>
    1904:	100007b7          	lui	a5,0x10000
    1908:	57478513          	addi	a0,a5,1396 # 10000574 <STACK_TOP+0xfff8574>
    190c:	f54fe0ef          	jal	60 <print_str>
    1910:	02c12083          	lw	ra,44(sp)
    1914:	02812403          	lw	s0,40(sp)
    1918:	03010113          	addi	sp,sp,48
    191c:	00008067          	ret

00001920 <handle_vga_command>:
    1920:	fd010113          	addi	sp,sp,-48
    1924:	02112623          	sw	ra,44(sp)
    1928:	02812423          	sw	s0,40(sp)
    192c:	03010413          	addi	s0,sp,48
    1930:	fca42e23          	sw	a0,-36(s0)
    1934:	fdc42783          	lw	a5,-36(s0)
    1938:	01078713          	addi	a4,a5,16
    193c:	100007b7          	lui	a5,0x10000
    1940:	5b078593          	addi	a1,a5,1456 # 100005b0 <STACK_TOP+0xfff85b0>
    1944:	00070513          	mv	a0,a4
    1948:	b81fe0ef          	jal	4c8 <strcmp>
    194c:	00050793          	mv	a5,a0
    1950:	0a079863          	bnez	a5,1a00 <handle_vga_command+0xe0>
    1954:	fdc42783          	lw	a5,-36(s0)
    1958:	0207c783          	lbu	a5,32(a5)
    195c:	00079663          	bnez	a5,1968 <handle_vga_command+0x48>
    1960:	fe042423          	sw	zero,-24(s0)
    1964:	0340006f          	j	1998 <handle_vga_command+0x78>
    1968:	fdc42783          	lw	a5,-36(s0)
    196c:	02078793          	addi	a5,a5,32
    1970:	fe840713          	addi	a4,s0,-24
    1974:	00070593          	mv	a1,a4
    1978:	00078513          	mv	a0,a5
    197c:	dfcff0ef          	jal	f78 <parse_hex>
    1980:	00050793          	mv	a5,a0
    1984:	00078a63          	beqz	a5,1998 <handle_vga_command+0x78>
    1988:	100007b7          	lui	a5,0x10000
    198c:	5b878513          	addi	a0,a5,1464 # 100005b8 <STACK_TOP+0xfff85b8>
    1990:	ed0fe0ef          	jal	60 <print_str>
    1994:	0ac0006f          	j	1a40 <handle_vga_command+0x120>
    1998:	fe842783          	lw	a5,-24(s0)
    199c:	0107d793          	srli	a5,a5,0x10
    19a0:	fef407a3          	sb	a5,-17(s0)
    19a4:	fe842783          	lw	a5,-24(s0)
    19a8:	0087d793          	srli	a5,a5,0x8
    19ac:	fef40723          	sb	a5,-18(s0)
    19b0:	fe842783          	lw	a5,-24(s0)
    19b4:	fef406a3          	sb	a5,-19(s0)
    19b8:	fed44683          	lbu	a3,-19(s0)
    19bc:	fee44703          	lbu	a4,-18(s0)
    19c0:	fef44783          	lbu	a5,-17(s0)
    19c4:	00068613          	mv	a2,a3
    19c8:	00070593          	mv	a1,a4
    19cc:	00078513          	mv	a0,a5
    19d0:	d09fe0ef          	jal	6d8 <vga_clear>
    19d4:	100007b7          	lui	a5,0x10000
    19d8:	5f478513          	addi	a0,a5,1524 # 100005f4 <STACK_TOP+0xfff85f4>
    19dc:	e84fe0ef          	jal	60 <print_str>
    19e0:	fe842783          	lw	a5,-24(s0)
    19e4:	00600593          	li	a1,6
    19e8:	00078513          	mv	a0,a5
    19ec:	ec8fe0ef          	jal	b4 <print_hex>
    19f0:	100007b7          	lui	a5,0x10000
    19f4:	04878513          	addi	a0,a5,72 # 10000048 <STACK_TOP+0xfff8048>
    19f8:	e68fe0ef          	jal	60 <print_str>
    19fc:	0440006f          	j	1a40 <handle_vga_command+0x120>
    1a00:	fdc42783          	lw	a5,-36(s0)
    1a04:	01078713          	addi	a4,a5,16
    1a08:	100007b7          	lui	a5,0x10000
    1a0c:	61478593          	addi	a1,a5,1556 # 10000614 <STACK_TOP+0xfff8614>
    1a10:	00070513          	mv	a0,a4
    1a14:	ab5fe0ef          	jal	4c8 <strcmp>
    1a18:	00050793          	mv	a5,a0
    1a1c:	00079c63          	bnez	a5,1a34 <handle_vga_command+0x114>
    1a20:	d61fe0ef          	jal	780 <vga_draw_color_bars>
    1a24:	100007b7          	lui	a5,0x10000
    1a28:	61c78513          	addi	a0,a5,1564 # 1000061c <STACK_TOP+0xfff861c>
    1a2c:	e34fe0ef          	jal	60 <print_str>
    1a30:	0100006f          	j	1a40 <handle_vga_command+0x120>
    1a34:	100007b7          	lui	a5,0x10000
    1a38:	63878513          	addi	a0,a5,1592 # 10000638 <STACK_TOP+0xfff8638>
    1a3c:	e24fe0ef          	jal	60 <print_str>
    1a40:	02c12083          	lw	ra,44(sp)
    1a44:	02812403          	lw	s0,40(sp)
    1a48:	03010113          	addi	sp,sp,48
    1a4c:	00008067          	ret

00001a50 <handle_timer_command>:
    1a50:	fd010113          	addi	sp,sp,-48
    1a54:	02112623          	sw	ra,44(sp)
    1a58:	02812423          	sw	s0,40(sp)
    1a5c:	03212223          	sw	s2,36(sp)
    1a60:	03312023          	sw	s3,32(sp)
    1a64:	03010413          	addi	s0,sp,48
    1a68:	fca42e23          	sw	a0,-36(s0)
    1a6c:	fdc42783          	lw	a5,-36(s0)
    1a70:	01078713          	addi	a4,a5,16
    1a74:	100007b7          	lui	a5,0x10000
    1a78:	4ac78593          	addi	a1,a5,1196 # 100004ac <STACK_TOP+0xfff84ac>
    1a7c:	00070513          	mv	a0,a4
    1a80:	a49fe0ef          	jal	4c8 <strcmp>
    1a84:	00050793          	mv	a5,a0
    1a88:	0a079c63          	bnez	a5,1b40 <handle_timer_command+0xf0>
    1a8c:	fdc42783          	lw	a5,-36(s0)
    1a90:	0207c783          	lbu	a5,32(a5)
    1a94:	00079a63          	bnez	a5,1aa8 <handle_timer_command+0x58>
    1a98:	100007b7          	lui	a5,0x10000
    1a9c:	6a478513          	addi	a0,a5,1700 # 100006a4 <STACK_TOP+0xfff86a4>
    1aa0:	dc0fe0ef          	jal	60 <print_str>
    1aa4:	0a80006f          	j	1b4c <handle_timer_command+0xfc>
    1aa8:	fe042623          	sw	zero,-20(s0)
    1aac:	fdc42783          	lw	a5,-36(s0)
    1ab0:	02078793          	addi	a5,a5,32
    1ab4:	fec40713          	addi	a4,s0,-20
    1ab8:	00070593          	mv	a1,a4
    1abc:	00078513          	mv	a0,a5
    1ac0:	cb8ff0ef          	jal	f78 <parse_hex>
    1ac4:	00050793          	mv	a5,a0
    1ac8:	02078a63          	beqz	a5,1afc <handle_timer_command+0xac>
    1acc:	fdc42783          	lw	a5,-36(s0)
    1ad0:	02078793          	addi	a5,a5,32
    1ad4:	fec40713          	addi	a4,s0,-20
    1ad8:	00070593          	mv	a1,a4
    1adc:	00078513          	mv	a0,a5
    1ae0:	e59fe0ef          	jal	938 <parse_str_uint>
    1ae4:	00050793          	mv	a5,a0
    1ae8:	00078a63          	beqz	a5,1afc <handle_timer_command+0xac>
    1aec:	100007b7          	lui	a5,0x10000
    1af0:	6c478513          	addi	a0,a5,1732 # 100006c4 <STACK_TOP+0xfff86c4>
    1af4:	d6cfe0ef          	jal	60 <print_str>
    1af8:	0540006f          	j	1b4c <handle_timer_command+0xfc>
    1afc:	fec42783          	lw	a5,-20(s0)
    1b00:	00078913          	mv	s2,a5
    1b04:	00000993          	li	s3,0
    1b08:	00090513          	mv	a0,s2
    1b0c:	00098593          	mv	a1,s3
    1b10:	861fe0ef          	jal	370 <timer_init>
    1b14:	100007b7          	lui	a5,0x10000
    1b18:	6e878513          	addi	a0,a5,1768 # 100006e8 <STACK_TOP+0xfff86e8>
    1b1c:	d44fe0ef          	jal	60 <print_str>
    1b20:	fec42783          	lw	a5,-20(s0)
    1b24:	00800593          	li	a1,8
    1b28:	00078513          	mv	a0,a5
    1b2c:	d88fe0ef          	jal	b4 <print_hex>
    1b30:	100007b7          	lui	a5,0x10000
    1b34:	71478513          	addi	a0,a5,1812 # 10000714 <STACK_TOP+0xfff8714>
    1b38:	d28fe0ef          	jal	60 <print_str>
    1b3c:	0100006f          	j	1b4c <handle_timer_command+0xfc>
    1b40:	100007b7          	lui	a5,0x10000
    1b44:	72078513          	addi	a0,a5,1824 # 10000720 <STACK_TOP+0xfff8720>
    1b48:	d18fe0ef          	jal	60 <print_str>
    1b4c:	02c12083          	lw	ra,44(sp)
    1b50:	02812403          	lw	s0,40(sp)
    1b54:	02412903          	lw	s2,36(sp)
    1b58:	02012983          	lw	s3,32(sp)
    1b5c:	03010113          	addi	sp,sp,48
    1b60:	00008067          	ret

00001b64 <dispatch_command>:
    1b64:	fe010113          	addi	sp,sp,-32
    1b68:	00112e23          	sw	ra,28(sp)
    1b6c:	00812c23          	sw	s0,24(sp)
    1b70:	02010413          	addi	s0,sp,32
    1b74:	fea42623          	sw	a0,-20(s0)
    1b78:	fec42703          	lw	a4,-20(s0)
    1b7c:	100007b7          	lui	a5,0x10000
    1b80:	75078593          	addi	a1,a5,1872 # 10000750 <STACK_TOP+0xfff8750>
    1b84:	00070513          	mv	a0,a4
    1b88:	941fe0ef          	jal	4c8 <strcmp>
    1b8c:	00050793          	mv	a5,a0
    1b90:	00079863          	bnez	a5,1ba0 <dispatch_command+0x3c>
    1b94:	fec42503          	lw	a0,-20(s0)
    1b98:	d74ff0ef          	jal	110c <handle_gpio_command>
    1b9c:	0dc0006f          	j	1c78 <dispatch_command+0x114>
    1ba0:	fec42703          	lw	a4,-20(s0)
    1ba4:	100007b7          	lui	a5,0x10000
    1ba8:	75878593          	addi	a1,a5,1880 # 10000758 <STACK_TOP+0xfff8758>
    1bac:	00070513          	mv	a0,a4
    1bb0:	919fe0ef          	jal	4c8 <strcmp>
    1bb4:	00050793          	mv	a5,a0
    1bb8:	00079863          	bnez	a5,1bc8 <dispatch_command+0x64>
    1bbc:	fec42503          	lw	a0,-20(s0)
    1bc0:	e70ff0ef          	jal	1230 <handle_mem_command>
    1bc4:	0b40006f          	j	1c78 <dispatch_command+0x114>
    1bc8:	fec42703          	lw	a4,-20(s0)
    1bcc:	100007b7          	lui	a5,0x10000
    1bd0:	75c78593          	addi	a1,a5,1884 # 1000075c <STACK_TOP+0xfff875c>
    1bd4:	00070513          	mv	a0,a4
    1bd8:	8f1fe0ef          	jal	4c8 <strcmp>
    1bdc:	00050793          	mv	a5,a0
    1be0:	00079863          	bnez	a5,1bf0 <dispatch_command+0x8c>
    1be4:	fec42503          	lw	a0,-20(s0)
    1be8:	ba1ff0ef          	jal	1788 <handle_pwm_command>
    1bec:	08c0006f          	j	1c78 <dispatch_command+0x114>
    1bf0:	fec42703          	lw	a4,-20(s0)
    1bf4:	100007b7          	lui	a5,0x10000
    1bf8:	76078593          	addi	a1,a5,1888 # 10000760 <STACK_TOP+0xfff8760>
    1bfc:	00070513          	mv	a0,a4
    1c00:	8c9fe0ef          	jal	4c8 <strcmp>
    1c04:	00050793          	mv	a5,a0
    1c08:	00079863          	bnez	a5,1c18 <dispatch_command+0xb4>
    1c0c:	fec42503          	lw	a0,-20(s0)
    1c10:	d11ff0ef          	jal	1920 <handle_vga_command>
    1c14:	0640006f          	j	1c78 <dispatch_command+0x114>
    1c18:	fec42703          	lw	a4,-20(s0)
    1c1c:	100007b7          	lui	a5,0x10000
    1c20:	76478593          	addi	a1,a5,1892 # 10000764 <STACK_TOP+0xfff8764>
    1c24:	00070513          	mv	a0,a4
    1c28:	8a1fe0ef          	jal	4c8 <strcmp>
    1c2c:	00050793          	mv	a5,a0
    1c30:	00079863          	bnez	a5,1c40 <dispatch_command+0xdc>
    1c34:	fec42503          	lw	a0,-20(s0)
    1c38:	e19ff0ef          	jal	1a50 <handle_timer_command>
    1c3c:	03c0006f          	j	1c78 <dispatch_command+0x114>
    1c40:	fec42703          	lw	a4,-20(s0)
    1c44:	100007b7          	lui	a5,0x10000
    1c48:	76c78593          	addi	a1,a5,1900 # 1000076c <STACK_TOP+0xfff876c>
    1c4c:	00070513          	mv	a0,a4
    1c50:	879fe0ef          	jal	4c8 <strcmp>
    1c54:	00050793          	mv	a5,a0
    1c58:	00079a63          	bnez	a5,1c6c <dispatch_command+0x108>
    1c5c:	100007b7          	lui	a5,0x10000
    1c60:	77478513          	addi	a0,a5,1908 # 10000774 <STACK_TOP+0xfff8774>
    1c64:	bfcfe0ef          	jal	60 <print_str>
    1c68:	0100006f          	j	1c78 <dispatch_command+0x114>
    1c6c:	100017b7          	lui	a5,0x10001
    1c70:	83878513          	addi	a0,a5,-1992 # 10000838 <STACK_TOP+0xfff8838>
    1c74:	becfe0ef          	jal	60 <print_str>
    1c78:	00000013          	nop
    1c7c:	01c12083          	lw	ra,28(sp)
    1c80:	01812403          	lw	s0,24(sp)
    1c84:	02010113          	addi	sp,sp,32
    1c88:	00008067          	ret

00001c8c <command_handler>:
    1c8c:	f8010113          	addi	sp,sp,-128
    1c90:	06112e23          	sw	ra,124(sp)
    1c94:	06812c23          	sw	s0,120(sp)
    1c98:	08010413          	addi	s0,sp,128
    1c9c:	100017b7          	lui	a5,0x10001
    1ca0:	85c78513          	addi	a0,a5,-1956 # 1000085c <STACK_TOP+0xfff885c>
    1ca4:	bbcfe0ef          	jal	60 <print_str>
    1ca8:	fc440713          	addi	a4,s0,-60
    1cac:	400007b7          	lui	a5,0x40000
    1cb0:	00078613          	mv	a2,a5
    1cb4:	02000593          	li	a1,32
    1cb8:	00070513          	mv	a0,a4
    1cbc:	d55fe0ef          	jal	a10 <get_str_with_history>
    1cc0:	fe042623          	sw	zero,-20(s0)
    1cc4:	fe042423          	sw	zero,-24(s0)
    1cc8:	04c0006f          	j	1d14 <command_handler+0x88>
    1ccc:	fe842783          	lw	a5,-24(s0)
    1cd0:	ff078793          	addi	a5,a5,-16 # 3ffffff0 <STACK_TOP+0x3fff7ff0>
    1cd4:	008787b3          	add	a5,a5,s0
    1cd8:	fd47c703          	lbu	a4,-44(a5)
    1cdc:	02000793          	li	a5,32
    1ce0:	02f70463          	beq	a4,a5,1d08 <command_handler+0x7c>
    1ce4:	fe842783          	lw	a5,-24(s0)
    1ce8:	ff078793          	addi	a5,a5,-16
    1cec:	008787b3          	add	a5,a5,s0
    1cf0:	fd47c703          	lbu	a4,-44(a5)
    1cf4:	00900793          	li	a5,9
    1cf8:	00f70863          	beq	a4,a5,1d08 <command_handler+0x7c>
    1cfc:	00100793          	li	a5,1
    1d00:	fef42623          	sw	a5,-20(s0)
    1d04:	0240006f          	j	1d28 <command_handler+0x9c>
    1d08:	fe842783          	lw	a5,-24(s0)
    1d0c:	00178793          	addi	a5,a5,1
    1d10:	fef42423          	sw	a5,-24(s0)
    1d14:	fe842783          	lw	a5,-24(s0)
    1d18:	ff078793          	addi	a5,a5,-16
    1d1c:	008787b3          	add	a5,a5,s0
    1d20:	fd47c783          	lbu	a5,-44(a5)
    1d24:	fa0794e3          	bnez	a5,1ccc <command_handler+0x40>
    1d28:	fec42783          	lw	a5,-20(s0)
    1d2c:	06078263          	beqz	a5,1d90 <command_handler+0x104>
    1d30:	fe042223          	sw	zero,-28(s0)
    1d34:	0480006f          	j	1d7c <command_handler+0xf0>
    1d38:	fe442783          	lw	a5,-28(s0)
    1d3c:	ff078793          	addi	a5,a5,-16
    1d40:	008787b3          	add	a5,a5,s0
    1d44:	fd47c703          	lbu	a4,-44(a5)
    1d48:	400007b7          	lui	a5,0x40000
    1d4c:	00078693          	mv	a3,a5
    1d50:	fe442783          	lw	a5,-28(s0)
    1d54:	00f687b3          	add	a5,a3,a5
    1d58:	00e78023          	sb	a4,0(a5) # 40000000 <last_cmd.0>
    1d5c:	fe442783          	lw	a5,-28(s0)
    1d60:	ff078793          	addi	a5,a5,-16
    1d64:	008787b3          	add	a5,a5,s0
    1d68:	fd47c783          	lbu	a5,-44(a5)
    1d6c:	02078063          	beqz	a5,1d8c <command_handler+0x100>
    1d70:	fe442783          	lw	a5,-28(s0)
    1d74:	00178793          	addi	a5,a5,1
    1d78:	fef42223          	sw	a5,-28(s0)
    1d7c:	fe442703          	lw	a4,-28(s0)
    1d80:	01f00793          	li	a5,31
    1d84:	fae7fae3          	bgeu	a5,a4,1d38 <command_handler+0xac>
    1d88:	0080006f          	j	1d90 <command_handler+0x104>
    1d8c:	00000013          	nop
    1d90:	f8440713          	addi	a4,s0,-124
    1d94:	fc440793          	addi	a5,s0,-60
    1d98:	00070593          	mv	a1,a4
    1d9c:	00078513          	mv	a0,a5
    1da0:	f05fe0ef          	jal	ca4 <parse_command>
    1da4:	f8440793          	addi	a5,s0,-124
    1da8:	00078513          	mv	a0,a5
    1dac:	db9ff0ef          	jal	1b64 <dispatch_command>
    1db0:	00000013          	nop
    1db4:	07c12083          	lw	ra,124(sp)
    1db8:	07812403          	lw	s0,120(sp)
    1dbc:	08010113          	addi	sp,sp,128
    1dc0:	00008067          	ret

00001dc4 <external_irq_handler>:
    1dc4:	ff010113          	addi	sp,sp,-16
    1dc8:	00112623          	sw	ra,12(sp)
    1dcc:	00812423          	sw	s0,8(sp)
    1dd0:	01010413          	addi	s0,sp,16
    1dd4:	100017b7          	lui	a5,0x10001
    1dd8:	86078513          	addi	a0,a5,-1952 # 10000860 <STACK_TOP+0xfff8860>
    1ddc:	a84fe0ef          	jal	60 <print_str>
    1de0:	00000013          	nop
    1de4:	00c12083          	lw	ra,12(sp)
    1de8:	00812403          	lw	s0,8(sp)
    1dec:	01010113          	addi	sp,sp,16
    1df0:	00008067          	ret

00001df4 <timer_irq_handler>:
    1df4:	fe010113          	addi	sp,sp,-32
    1df8:	00112e23          	sw	ra,28(sp)
    1dfc:	00812c23          	sw	s0,24(sp)
    1e00:	02010413          	addi	s0,sp,32
    1e04:	100017b7          	lui	a5,0x10001
    1e08:	88878513          	addi	a0,a5,-1912 # 10000888 <STACK_TOP+0xfff8888>
    1e0c:	a54fe0ef          	jal	60 <print_str>
    1e10:	341027f3          	csrr	a5,mepc
    1e14:	fef42623          	sw	a5,-20(s0)
    1e18:	fec42783          	lw	a5,-20(s0)
    1e1c:	fef42423          	sw	a5,-24(s0)
    1e20:	100017b7          	lui	a5,0x10001
    1e24:	8b078513          	addi	a0,a5,-1872 # 100008b0 <STACK_TOP+0xfff88b0>
    1e28:	a38fe0ef          	jal	60 <print_str>
    1e2c:	00800593          	li	a1,8
    1e30:	fe842503          	lw	a0,-24(s0)
    1e34:	a80fe0ef          	jal	b4 <print_hex>
    1e38:	100007b7          	lui	a5,0x10000
    1e3c:	04878513          	addi	a0,a5,72 # 10000048 <STACK_TOP+0xfff8048>
    1e40:	a20fe0ef          	jal	60 <print_str>
    1e44:	540be537          	lui	a0,0x540be
    1e48:	3ff50513          	addi	a0,a0,1023 # 540be3ff <_stack_top+0x140b63ff>
    1e4c:	00200593          	li	a1,2
    1e50:	d20fe0ef          	jal	370 <timer_init>
    1e54:	00000013          	nop
    1e58:	01c12083          	lw	ra,28(sp)
    1e5c:	01812403          	lw	s0,24(sp)
    1e60:	02010113          	addi	sp,sp,32
    1e64:	00008067          	ret

00001e68 <main>:
    1e68:	ff010113          	addi	sp,sp,-16
    1e6c:	00112623          	sw	ra,12(sp)
    1e70:	00812423          	sw	s0,8(sp)
    1e74:	01010413          	addi	s0,sp,16
    1e78:	c0cfe0ef          	jal	284 <trap_init>
    1e7c:	00000593          	li	a1,0
    1e80:	00100513          	li	a0,1
    1e84:	c2cfe0ef          	jal	2b0 <interrupt_init>
    1e88:	100017b7          	lui	a5,0x10001
    1e8c:	8bc78513          	addi	a0,a5,-1860 # 100008bc <STACK_TOP+0xfff88bc>
    1e90:	9d0fe0ef          	jal	60 <print_str>
    1e94:	df9ff0ef          	jal	1c8c <command_handler>
    1e98:	ffdff06f          	j	1e94 <main+0x2c>

Disassembly of section .rodata:

10000000 <.rodata>:
10000000:	3130                	.insn	2, 0x3130
10000002:	3332                	.insn	2, 0x3332
10000004:	3534                	.insn	2, 0x3534
10000006:	3736                	.insn	2, 0x3736
10000008:	3938                	.insn	2, 0x3938
1000000a:	4241                	.insn	2, 0x4241
1000000c:	46454443          	.insn	4, 0x46454443
10000010:	0000                	.insn	2, 0x0000
10000012:	0000                	.insn	2, 0x0000
10000014:	0000                	.insn	2, 0x0000
10000016:	00ff ff00 0000 00ff 	.insn	10, 0x00ff0000ff0000ff
1000001e:	0000 
10000020:	ff00                	.insn	2, 0xff00
10000022:	00ff 00ff 00ff ffff 	.insn	10, 0xffff00ff00ff00ff
1000002a:	0000 
1000002c:	ffff                	.insn	2, 0xffff
1000002e:	00ff 6e69 0000 0a0d 	.insn	10, 0x50470a0d00006e6900ff
10000036:	5047 
10000038:	4f49                	.insn	2, 0x4f49
1000003a:	4920                	.insn	2, 0x4920
1000003c:	204e                	.insn	2, 0x204e
1000003e:	6176                	.insn	2, 0x6176
10000040:	756c                	.insn	2, 0x756c
10000042:	3a65                	.insn	2, 0x3a65
10000044:	3020                	.insn	2, 0x3020
10000046:	0078                	.insn	2, 0x0078
10000048:	0a0d                	.insn	2, 0x0a0d
1000004a:	0000                	.insn	2, 0x0000
1000004c:	0074756f          	jal	a0,10047852 <STACK_TOP+0x1003f852>
10000050:	0a0d                	.insn	2, 0x0a0d
10000052:	7245                	.insn	2, 0x7245
10000054:	6f72                	.insn	2, 0x6f72
10000056:	3a72                	.insn	2, 0x3a72
10000058:	6120                	.insn	2, 0x6120
1000005a:	6772                	.insn	2, 0x6772
1000005c:	6d75                	.insn	2, 0x6d75
1000005e:	6e65                	.insn	2, 0x6e65
10000060:	2074                	.insn	2, 0x2074
10000062:	696d                	.insn	2, 0x696d
10000064:	6e697373          	csrrci	t1,0x6e6,18
10000068:	55202e67          	.insn	4, 0x55202e67
1000006c:	65676173          	csrrsi	sp,hviprio1h,14
10000070:	203a                	.insn	2, 0x203a
10000072:	6f697067          	.insn	4, 0x6f697067
10000076:	6f20                	.insn	2, 0x6f20
10000078:	7475                	.insn	2, 0x7475
1000007a:	3c20                	.insn	2, 0x3c20
1000007c:	6568                	.insn	2, 0x6568
1000007e:	5f78                	.insn	2, 0x5f78
10000080:	6176                	.insn	2, 0x6176
10000082:	756c                	.insn	2, 0x756c
10000084:	3e65                	.insn	2, 0x3e65
10000086:	0a0d                	.insn	2, 0x0a0d
10000088:	0000                	.insn	2, 0x0000
1000008a:	0000                	.insn	2, 0x0000
1000008c:	0a0d                	.insn	2, 0x0a0d
1000008e:	7245                	.insn	2, 0x7245
10000090:	6f72                	.insn	2, 0x6f72
10000092:	3a72                	.insn	2, 0x3a72
10000094:	6920                	.insn	2, 0x6920
10000096:	766e                	.insn	2, 0x766e
10000098:	6c61                	.insn	2, 0x6c61
1000009a:	6469                	.insn	2, 0x6469
1000009c:	6820                	.insn	2, 0x6820
1000009e:	7865                	.insn	2, 0x7865
100000a0:	6120                	.insn	2, 0x6120
100000a2:	6772                	.insn	2, 0x6772
100000a4:	6d75                	.insn	2, 0x6d75
100000a6:	6e65                	.insn	2, 0x6e65
100000a8:	2e74                	.insn	2, 0x2e74
100000aa:	5520                	.insn	2, 0x5520
100000ac:	65676173          	csrrsi	sp,hviprio1h,14
100000b0:	203a                	.insn	2, 0x203a
100000b2:	6f697067          	.insn	4, 0x6f697067
100000b6:	6f20                	.insn	2, 0x6f20
100000b8:	7475                	.insn	2, 0x7475
100000ba:	3c20                	.insn	2, 0x3c20
100000bc:	6568                	.insn	2, 0x6568
100000be:	5f78                	.insn	2, 0x5f78
100000c0:	6176                	.insn	2, 0x6176
100000c2:	756c                	.insn	2, 0x756c
100000c4:	3e65                	.insn	2, 0x3e65
100000c6:	0a0d                	.insn	2, 0x0a0d
100000c8:	0000                	.insn	2, 0x0000
100000ca:	0000                	.insn	2, 0x0000
100000cc:	0a0d                	.insn	2, 0x0a0d
100000ce:	20746553          	.insn	4, 0x20746553
100000d2:	4f495047          	.insn	4, 0x4f495047
100000d6:	4f20                	.insn	2, 0x4f20
100000d8:	5455                	.insn	2, 0x5455
100000da:	7420                	.insn	2, 0x7420
100000dc:	7830206f          	j	1000305e <STACK_TOP+0xfffb05e>
100000e0:	0000                	.insn	2, 0x0000
100000e2:	0000                	.insn	2, 0x0000
100000e4:	0a0d                	.insn	2, 0x0a0d
100000e6:	4f495047          	.insn	4, 0x4f495047
100000ea:	6f20                	.insn	2, 0x6f20
100000ec:	7475                	.insn	2, 0x7475
100000ee:	7570                	.insn	2, 0x7570
100000f0:	2074                	.insn	2, 0x2074
100000f2:	7075                	.insn	2, 0x7075
100000f4:	6164                	.insn	2, 0x6164
100000f6:	6574                	.insn	2, 0x6574
100000f8:	2164                	.insn	2, 0x2164
100000fa:	0a0d                	.insn	2, 0x0a0d
100000fc:	0000                	.insn	2, 0x0000
100000fe:	0000                	.insn	2, 0x0000
10000100:	0a0d                	.insn	2, 0x0a0d
10000102:	7245                	.insn	2, 0x7245
10000104:	6f72                	.insn	2, 0x6f72
10000106:	3a72                	.insn	2, 0x3a72
10000108:	7520                	.insn	2, 0x7520
1000010a:	6b6e                	.insn	2, 0x6b6e
1000010c:	6f6e                	.insn	2, 0x6f6e
1000010e:	73206e77          	.insn	4, 0x73206e77
10000112:	6275                	.insn	2, 0x6275
10000114:	2e646d63          	bltu	s0,t1,1000040e <STACK_TOP+0xfff840e>
10000118:	5520                	.insn	2, 0x5520
1000011a:	65676173          	csrrsi	sp,hviprio1h,14
1000011e:	203a                	.insn	2, 0x203a
10000120:	6f697067          	.insn	4, 0x6f697067
10000124:	3c20                	.insn	2, 0x3c20
10000126:	6e69                	.insn	2, 0x6e69
10000128:	6f7c                	.insn	2, 0x6f7c
1000012a:	7475                	.insn	2, 0x7475
1000012c:	203e                	.insn	2, 0x203e
1000012e:	683c                	.insn	2, 0x683c
10000130:	7865                	.insn	2, 0x7865
10000132:	765f 6c61 6575      	.insn	6, 0x65756c61765f
10000138:	0d3e                	.insn	2, 0x0d3e
1000013a:	000a                	.insn	2, 0x000a
1000013c:	6572                	.insn	2, 0x6572
1000013e:	6461                	.insn	2, 0x6461
10000140:	0000                	.insn	2, 0x0000
10000142:	0000                	.insn	2, 0x0000
10000144:	6572                	.insn	2, 0x6572
10000146:	6461                	.insn	2, 0x6461
10000148:	00003233          	snez	tp,zero
1000014c:	0a0d                	.insn	2, 0x0a0d
1000014e:	7245                	.insn	2, 0x7245
10000150:	6f72                	.insn	2, 0x6f72
10000152:	3a72                	.insn	2, 0x3a72
10000154:	6920                	.insn	2, 0x6920
10000156:	766e                	.insn	2, 0x766e
10000158:	6c61                	.insn	2, 0x6c61
1000015a:	6469                	.insn	2, 0x6469
1000015c:	6120                	.insn	2, 0x6120
1000015e:	6464                	.insn	2, 0x6464
10000160:	6572                	.insn	2, 0x6572
10000162:	202e7373          	csrrci	t1,0x202,28
10000166:	7355                	.insn	2, 0x7355
10000168:	6761                	.insn	2, 0x6761
1000016a:	3a65                	.insn	2, 0x3a65
1000016c:	6d20                	.insn	2, 0x6d20
1000016e:	6d65                	.insn	2, 0x6d65
10000170:	7220                	.insn	2, 0x7220
10000172:	6165                	.insn	2, 0x6165
10000174:	5b64                	.insn	2, 0x5b64
10000176:	205d3233          	.insn	4, 0x205d3233
1000017a:	613c                	.insn	2, 0x613c
1000017c:	6464                	.insn	2, 0x6464
1000017e:	3e72                	.insn	2, 0x3e72
10000180:	0a0d                	.insn	2, 0x0a0d
10000182:	0000                	.insn	2, 0x0000
10000184:	0a0d                	.insn	2, 0x0a0d
10000186:	454d                	.insn	2, 0x454d
10000188:	334d                	.insn	2, 0x334d
1000018a:	5b32                	.insn	2, 0x5b32
1000018c:	7830                	.insn	2, 0x7830
1000018e:	0000                	.insn	2, 0x0000
10000190:	205d                	.insn	2, 0x205d
10000192:	203d                	.insn	2, 0x203d
10000194:	7830                	.insn	2, 0x7830
10000196:	0000                	.insn	2, 0x0000
10000198:	6572                	.insn	2, 0x6572
1000019a:	6461                	.insn	2, 0x6461
1000019c:	3631                	.insn	2, 0x3631
1000019e:	0000                	.insn	2, 0x0000
100001a0:	0a0d                	.insn	2, 0x0a0d
100001a2:	7245                	.insn	2, 0x7245
100001a4:	6f72                	.insn	2, 0x6f72
100001a6:	3a72                	.insn	2, 0x3a72
100001a8:	6920                	.insn	2, 0x6920
100001aa:	766e                	.insn	2, 0x766e
100001ac:	6c61                	.insn	2, 0x6c61
100001ae:	6469                	.insn	2, 0x6469
100001b0:	6120                	.insn	2, 0x6120
100001b2:	6464                	.insn	2, 0x6464
100001b4:	6572                	.insn	2, 0x6572
100001b6:	202e7373          	csrrci	t1,0x202,28
100001ba:	7355                	.insn	2, 0x7355
100001bc:	6761                	.insn	2, 0x6761
100001be:	3a65                	.insn	2, 0x3a65
100001c0:	6d20                	.insn	2, 0x6d20
100001c2:	6d65                	.insn	2, 0x6d65
100001c4:	7220                	.insn	2, 0x7220
100001c6:	6165                	.insn	2, 0x6165
100001c8:	3164                	.insn	2, 0x3164
100001ca:	2036                	.insn	2, 0x2036
100001cc:	613c                	.insn	2, 0x613c
100001ce:	6464                	.insn	2, 0x6464
100001d0:	3e72                	.insn	2, 0x3e72
100001d2:	0a0d                	.insn	2, 0x0a0d
100001d4:	0000                	.insn	2, 0x0000
100001d6:	0000                	.insn	2, 0x0000
100001d8:	0a0d                	.insn	2, 0x0a0d
100001da:	454d                	.insn	2, 0x454d
100001dc:	314d                	.insn	2, 0x314d
100001de:	5b36                	.insn	2, 0x5b36
100001e0:	7830                	.insn	2, 0x7830
100001e2:	0000                	.insn	2, 0x0000
100001e4:	6572                	.insn	2, 0x6572
100001e6:	6461                	.insn	2, 0x6461
100001e8:	0038                	.insn	2, 0x0038
100001ea:	0000                	.insn	2, 0x0000
100001ec:	0a0d                	.insn	2, 0x0a0d
100001ee:	7245                	.insn	2, 0x7245
100001f0:	6f72                	.insn	2, 0x6f72
100001f2:	3a72                	.insn	2, 0x3a72
100001f4:	6920                	.insn	2, 0x6920
100001f6:	766e                	.insn	2, 0x766e
100001f8:	6c61                	.insn	2, 0x6c61
100001fa:	6469                	.insn	2, 0x6469
100001fc:	6120                	.insn	2, 0x6120
100001fe:	6464                	.insn	2, 0x6464
10000200:	6572                	.insn	2, 0x6572
10000202:	202e7373          	csrrci	t1,0x202,28
10000206:	7355                	.insn	2, 0x7355
10000208:	6761                	.insn	2, 0x6761
1000020a:	3a65                	.insn	2, 0x3a65
1000020c:	6d20                	.insn	2, 0x6d20
1000020e:	6d65                	.insn	2, 0x6d65
10000210:	7220                	.insn	2, 0x7220
10000212:	6165                	.insn	2, 0x6165
10000214:	3864                	.insn	2, 0x3864
10000216:	3c20                	.insn	2, 0x3c20
10000218:	6461                	.insn	2, 0x6461
1000021a:	7264                	.insn	2, 0x7264
1000021c:	0d3e                	.insn	2, 0x0d3e
1000021e:	000a                	.insn	2, 0x000a
10000220:	0a0d                	.insn	2, 0x0a0d
10000222:	454d                	.insn	2, 0x454d
10000224:	384d                	.insn	2, 0x384d
10000226:	0078305b          	.insn	4, 0x0078305b
1000022a:	0000                	.insn	2, 0x0000
1000022c:	74697277          	.insn	4, 0x74697277
10000230:	0065                	.insn	2, 0x0065
10000232:	0000                	.insn	2, 0x0000
10000234:	74697277          	.insn	4, 0x74697277
10000238:	3365                	.insn	2, 0x3365
1000023a:	0032                	.insn	2, 0x0032
1000023c:	0a0d                	.insn	2, 0x0a0d
1000023e:	7245                	.insn	2, 0x7245
10000240:	6f72                	.insn	2, 0x6f72
10000242:	3a72                	.insn	2, 0x3a72
10000244:	6920                	.insn	2, 0x6920
10000246:	636e                	.insn	2, 0x636e
10000248:	6c706d6f          	jal	s10,1000710e <STACK_TOP+0xffff10e>
1000024c:	7465                	.insn	2, 0x7465
1000024e:	2065                	.insn	2, 0x2065
10000250:	7261                	.insn	2, 0x7261
10000252:	202e7367          	.insn	4, 0x202e7367
10000256:	7355                	.insn	2, 0x7355
10000258:	6761                	.insn	2, 0x6761
1000025a:	3a65                	.insn	2, 0x3a65
1000025c:	6d20                	.insn	2, 0x6d20
1000025e:	6d65                	.insn	2, 0x6d65
10000260:	7720                	.insn	2, 0x7720
10000262:	6972                	.insn	2, 0x6972
10000264:	6574                	.insn	2, 0x6574
10000266:	5d32335b          	.insn	4, 0x5d32335b
1000026a:	3c20                	.insn	2, 0x3c20
1000026c:	6461                	.insn	2, 0x6461
1000026e:	7264                	.insn	2, 0x7264
10000270:	203e                	.insn	2, 0x203e
10000272:	683c                	.insn	2, 0x683c
10000274:	7865                	.insn	2, 0x7865
10000276:	765f 6c61 6575      	.insn	6, 0x65756c61765f
1000027c:	0d3e                	.insn	2, 0x0d3e
1000027e:	000a                	.insn	2, 0x000a
10000280:	0a0d                	.insn	2, 0x0a0d
10000282:	7245                	.insn	2, 0x7245
10000284:	6f72                	.insn	2, 0x6f72
10000286:	3a72                	.insn	2, 0x3a72
10000288:	6920                	.insn	2, 0x6920
1000028a:	766e                	.insn	2, 0x766e
1000028c:	6c61                	.insn	2, 0x6c61
1000028e:	6469                	.insn	2, 0x6469
10000290:	6120                	.insn	2, 0x6120
10000292:	6464                	.insn	2, 0x6464
10000294:	6572                	.insn	2, 0x6572
10000296:	6f207373          	csrrci	t1,0x6f2,0
1000029a:	2072                	.insn	2, 0x2072
1000029c:	6176                	.insn	2, 0x6176
1000029e:	756c                	.insn	2, 0x756c
100002a0:	2e65                	.insn	2, 0x2e65
100002a2:	5520                	.insn	2, 0x5520
100002a4:	65676173          	csrrsi	sp,hviprio1h,14
100002a8:	203a                	.insn	2, 0x203a
100002aa:	656d                	.insn	2, 0x656d
100002ac:	206d                	.insn	2, 0x206d
100002ae:	74697277          	.insn	4, 0x74697277
100002b2:	5b65                	.insn	2, 0x5b65
100002b4:	205d3233          	.insn	4, 0x205d3233
100002b8:	613c                	.insn	2, 0x613c
100002ba:	6464                	.insn	2, 0x6464
100002bc:	3e72                	.insn	2, 0x3e72
100002be:	3c20                	.insn	2, 0x3c20
100002c0:	6568                	.insn	2, 0x6568
100002c2:	5f78                	.insn	2, 0x5f78
100002c4:	6176                	.insn	2, 0x6176
100002c6:	756c                	.insn	2, 0x756c
100002c8:	3e65                	.insn	2, 0x3e65
100002ca:	0a0d                	.insn	2, 0x0a0d
100002cc:	0000                	.insn	2, 0x0000
100002ce:	0000                	.insn	2, 0x0000
100002d0:	205d                	.insn	2, 0x205d
100002d2:	3d3c                	.insn	2, 0x3d3c
100002d4:	3020                	.insn	2, 0x3020
100002d6:	0078                	.insn	2, 0x0078
100002d8:	0a0d                	.insn	2, 0x0a0d
100002da:	654d                	.insn	2, 0x654d
100002dc:	6f6d                	.insn	2, 0x6f6d
100002de:	7972                	.insn	2, 0x7972
100002e0:	7720                	.insn	2, 0x7720
100002e2:	6972                	.insn	2, 0x6972
100002e4:	6574                	.insn	2, 0x6574
100002e6:	64203233          	.insn	4, 0x64203233
100002ea:	21656e6f          	jal	t3,10056500 <STACK_TOP+0x1004e500>
100002ee:	0a0d                	.insn	2, 0x0a0d
100002f0:	0000                	.insn	2, 0x0000
100002f2:	0000                	.insn	2, 0x0000
100002f4:	74697277          	.insn	4, 0x74697277
100002f8:	3165                	.insn	2, 0x3165
100002fa:	0036                	.insn	2, 0x0036
100002fc:	0a0d                	.insn	2, 0x0a0d
100002fe:	7245                	.insn	2, 0x7245
10000300:	6f72                	.insn	2, 0x6f72
10000302:	3a72                	.insn	2, 0x3a72
10000304:	6920                	.insn	2, 0x6920
10000306:	636e                	.insn	2, 0x636e
10000308:	6c706d6f          	jal	s10,100071ce <STACK_TOP+0xffff1ce>
1000030c:	7465                	.insn	2, 0x7465
1000030e:	2065                	.insn	2, 0x2065
10000310:	7261                	.insn	2, 0x7261
10000312:	202e7367          	.insn	4, 0x202e7367
10000316:	7355                	.insn	2, 0x7355
10000318:	6761                	.insn	2, 0x6761
1000031a:	3a65                	.insn	2, 0x3a65
1000031c:	6d20                	.insn	2, 0x6d20
1000031e:	6d65                	.insn	2, 0x6d65
10000320:	7720                	.insn	2, 0x7720
10000322:	6972                	.insn	2, 0x6972
10000324:	6574                	.insn	2, 0x6574
10000326:	3631                	.insn	2, 0x3631
10000328:	3c20                	.insn	2, 0x3c20
1000032a:	6461                	.insn	2, 0x6461
1000032c:	7264                	.insn	2, 0x7264
1000032e:	203e                	.insn	2, 0x203e
10000330:	683c                	.insn	2, 0x683c
10000332:	7865                	.insn	2, 0x7865
10000334:	765f 6c61 6575      	.insn	6, 0x65756c61765f
1000033a:	0d3e                	.insn	2, 0x0d3e
1000033c:	000a                	.insn	2, 0x000a
1000033e:	0000                	.insn	2, 0x0000
10000340:	0a0d                	.insn	2, 0x0a0d
10000342:	7245                	.insn	2, 0x7245
10000344:	6f72                	.insn	2, 0x6f72
10000346:	3a72                	.insn	2, 0x3a72
10000348:	6920                	.insn	2, 0x6920
1000034a:	766e                	.insn	2, 0x766e
1000034c:	6c61                	.insn	2, 0x6c61
1000034e:	6469                	.insn	2, 0x6469
10000350:	6120                	.insn	2, 0x6120
10000352:	6464                	.insn	2, 0x6464
10000354:	6572                	.insn	2, 0x6572
10000356:	6f207373          	csrrci	t1,0x6f2,0
1000035a:	2072                	.insn	2, 0x2072
1000035c:	6176                	.insn	2, 0x6176
1000035e:	756c                	.insn	2, 0x756c
10000360:	2e65                	.insn	2, 0x2e65
10000362:	5520                	.insn	2, 0x5520
10000364:	65676173          	csrrsi	sp,hviprio1h,14
10000368:	203a                	.insn	2, 0x203a
1000036a:	656d                	.insn	2, 0x656d
1000036c:	206d                	.insn	2, 0x206d
1000036e:	74697277          	.insn	4, 0x74697277
10000372:	3165                	.insn	2, 0x3165
10000374:	2036                	.insn	2, 0x2036
10000376:	613c                	.insn	2, 0x613c
10000378:	6464                	.insn	2, 0x6464
1000037a:	3e72                	.insn	2, 0x3e72
1000037c:	3c20                	.insn	2, 0x3c20
1000037e:	6568                	.insn	2, 0x6568
10000380:	5f78                	.insn	2, 0x5f78
10000382:	6176                	.insn	2, 0x6176
10000384:	756c                	.insn	2, 0x756c
10000386:	3e65                	.insn	2, 0x3e65
10000388:	0a0d                	.insn	2, 0x0a0d
1000038a:	0000                	.insn	2, 0x0000
1000038c:	0a0d                	.insn	2, 0x0a0d
1000038e:	654d                	.insn	2, 0x654d
10000390:	6f6d                	.insn	2, 0x6f6d
10000392:	7972                	.insn	2, 0x7972
10000394:	7720                	.insn	2, 0x7720
10000396:	6972                	.insn	2, 0x6972
10000398:	6574                	.insn	2, 0x6574
1000039a:	3631                	.insn	2, 0x3631
1000039c:	6420                	.insn	2, 0x6420
1000039e:	21656e6f          	jal	t3,100565b4 <STACK_TOP+0x1004e5b4>
100003a2:	0a0d                	.insn	2, 0x0a0d
100003a4:	0000                	.insn	2, 0x0000
100003a6:	0000                	.insn	2, 0x0000
100003a8:	74697277          	.insn	4, 0x74697277
100003ac:	3865                	.insn	2, 0x3865
100003ae:	0000                	.insn	2, 0x0000
100003b0:	0a0d                	.insn	2, 0x0a0d
100003b2:	7245                	.insn	2, 0x7245
100003b4:	6f72                	.insn	2, 0x6f72
100003b6:	3a72                	.insn	2, 0x3a72
100003b8:	6920                	.insn	2, 0x6920
100003ba:	636e                	.insn	2, 0x636e
100003bc:	6c706d6f          	jal	s10,10007282 <STACK_TOP+0xffff282>
100003c0:	7465                	.insn	2, 0x7465
100003c2:	2065                	.insn	2, 0x2065
100003c4:	7261                	.insn	2, 0x7261
100003c6:	202e7367          	.insn	4, 0x202e7367
100003ca:	7355                	.insn	2, 0x7355
100003cc:	6761                	.insn	2, 0x6761
100003ce:	3a65                	.insn	2, 0x3a65
100003d0:	6d20                	.insn	2, 0x6d20
100003d2:	6d65                	.insn	2, 0x6d65
100003d4:	7720                	.insn	2, 0x7720
100003d6:	6972                	.insn	2, 0x6972
100003d8:	6574                	.insn	2, 0x6574
100003da:	2038                	.insn	2, 0x2038
100003dc:	613c                	.insn	2, 0x613c
100003de:	6464                	.insn	2, 0x6464
100003e0:	3e72                	.insn	2, 0x3e72
100003e2:	3c20                	.insn	2, 0x3c20
100003e4:	6568                	.insn	2, 0x6568
100003e6:	5f78                	.insn	2, 0x5f78
100003e8:	6176                	.insn	2, 0x6176
100003ea:	756c                	.insn	2, 0x756c
100003ec:	3e65                	.insn	2, 0x3e65
100003ee:	0a0d                	.insn	2, 0x0a0d
100003f0:	0000                	.insn	2, 0x0000
100003f2:	0000                	.insn	2, 0x0000
100003f4:	0a0d                	.insn	2, 0x0a0d
100003f6:	7245                	.insn	2, 0x7245
100003f8:	6f72                	.insn	2, 0x6f72
100003fa:	3a72                	.insn	2, 0x3a72
100003fc:	6920                	.insn	2, 0x6920
100003fe:	766e                	.insn	2, 0x766e
10000400:	6c61                	.insn	2, 0x6c61
10000402:	6469                	.insn	2, 0x6469
10000404:	6120                	.insn	2, 0x6120
10000406:	6464                	.insn	2, 0x6464
10000408:	6572                	.insn	2, 0x6572
1000040a:	6f207373          	csrrci	t1,0x6f2,0
1000040e:	2072                	.insn	2, 0x2072
10000410:	6176                	.insn	2, 0x6176
10000412:	756c                	.insn	2, 0x756c
10000414:	2e65                	.insn	2, 0x2e65
10000416:	5520                	.insn	2, 0x5520
10000418:	65676173          	csrrsi	sp,hviprio1h,14
1000041c:	203a                	.insn	2, 0x203a
1000041e:	656d                	.insn	2, 0x656d
10000420:	206d                	.insn	2, 0x206d
10000422:	74697277          	.insn	4, 0x74697277
10000426:	3865                	.insn	2, 0x3865
10000428:	3c20                	.insn	2, 0x3c20
1000042a:	6461                	.insn	2, 0x6461
1000042c:	7264                	.insn	2, 0x7264
1000042e:	203e                	.insn	2, 0x203e
10000430:	683c                	.insn	2, 0x683c
10000432:	7865                	.insn	2, 0x7865
10000434:	765f 6c61 6575      	.insn	6, 0x65756c61765f
1000043a:	0d3e                	.insn	2, 0x0d3e
1000043c:	000a                	.insn	2, 0x000a
1000043e:	0000                	.insn	2, 0x0000
10000440:	0a0d                	.insn	2, 0x0a0d
10000442:	654d                	.insn	2, 0x654d
10000444:	6f6d                	.insn	2, 0x6f6d
10000446:	7972                	.insn	2, 0x7972
10000448:	7720                	.insn	2, 0x7720
1000044a:	6972                	.insn	2, 0x6972
1000044c:	6574                	.insn	2, 0x6574
1000044e:	2038                	.insn	2, 0x2038
10000450:	6f64                	.insn	2, 0x6f64
10000452:	656e                	.insn	2, 0x656e
10000454:	0d21                	.insn	2, 0x0d21
10000456:	000a                	.insn	2, 0x000a
10000458:	0a0d                	.insn	2, 0x0a0d
1000045a:	7245                	.insn	2, 0x7245
1000045c:	6f72                	.insn	2, 0x6f72
1000045e:	3a72                	.insn	2, 0x3a72
10000460:	7520                	.insn	2, 0x7520
10000462:	6b6e                	.insn	2, 0x6b6e
10000464:	6f6e                	.insn	2, 0x6f6e
10000466:	73206e77          	.insn	4, 0x73206e77
1000046a:	6275                	.insn	2, 0x6275
1000046c:	2e646d63          	bltu	s0,t1,10000766 <STACK_TOP+0xfff8766>
10000470:	5520                	.insn	2, 0x5520
10000472:	65676173          	csrrsi	sp,hviprio1h,14
10000476:	0d3a                	.insn	2, 0x0d3a
10000478:	200a                	.insn	2, 0x200a
1000047a:	2020                	.insn	2, 0x2020
1000047c:	6d20                	.insn	2, 0x6d20
1000047e:	6d65                	.insn	2, 0x6d65
10000480:	3c20                	.insn	2, 0x3c20
10000482:	6572                	.insn	2, 0x6572
10000484:	6461                	.insn	2, 0x6461
10000486:	777c                	.insn	2, 0x777c
10000488:	6972                	.insn	2, 0x6972
1000048a:	6574                	.insn	2, 0x6574
1000048c:	317c385b          	.insn	4, 0x317c385b
10000490:	7c36                	.insn	2, 0x7c36
10000492:	3e5d3233          	.insn	4, 0x3e5d3233
10000496:	3c20                	.insn	2, 0x3c20
10000498:	6461                	.insn	2, 0x6461
1000049a:	7264                	.insn	2, 0x7264
1000049c:	203e                	.insn	2, 0x203e
1000049e:	7865685b          	.insn	4, 0x7865685b
100004a2:	765f 6c61 6575      	.insn	6, 0x65756c61765f
100004a8:	0d5d                	.insn	2, 0x0d5d
100004aa:	000a                	.insn	2, 0x000a
100004ac:	00746573          	csrrsi	a0,0x7,8
100004b0:	0a0d                	.insn	2, 0x0a0d
100004b2:	7245                	.insn	2, 0x7245
100004b4:	6f72                	.insn	2, 0x6f72
100004b6:	3a72                	.insn	2, 0x3a72
100004b8:	6920                	.insn	2, 0x6920
100004ba:	636e                	.insn	2, 0x636e
100004bc:	6c706d6f          	jal	s10,10007382 <STACK_TOP+0xffff382>
100004c0:	7465                	.insn	2, 0x7465
100004c2:	2065                	.insn	2, 0x2065
100004c4:	7261                	.insn	2, 0x7261
100004c6:	202e7367          	.insn	4, 0x202e7367
100004ca:	7355                	.insn	2, 0x7355
100004cc:	6761                	.insn	2, 0x6761
100004ce:	3a65                	.insn	2, 0x3a65
100004d0:	7020                	.insn	2, 0x7020
100004d2:	73206d77          	.insn	4, 0x73206d77
100004d6:	7465                	.insn	2, 0x7465
100004d8:	3c20                	.insn	2, 0x3c20
100004da:	6e616863          	bltu	sp,t1,10000bca <STACK_TOP+0xfff8bca>
100004de:	656e                	.insn	2, 0x656e
100004e0:	3e6c                	.insn	2, 0x3e6c
100004e2:	3c20                	.insn	2, 0x3c20
100004e4:	7564                	.insn	2, 0x7564
100004e6:	7974                	.insn	2, 0x7974
100004e8:	0d3e                	.insn	2, 0x0d3e
100004ea:	000a                	.insn	2, 0x000a
100004ec:	0a0d                	.insn	2, 0x0a0d
100004ee:	7245                	.insn	2, 0x7245
100004f0:	6f72                	.insn	2, 0x6f72
100004f2:	3a72                	.insn	2, 0x3a72
100004f4:	6920                	.insn	2, 0x6920
100004f6:	766e                	.insn	2, 0x766e
100004f8:	6c61                	.insn	2, 0x6c61
100004fa:	6469                	.insn	2, 0x6469
100004fc:	6320                	.insn	2, 0x6320
100004fe:	6168                	.insn	2, 0x6168
10000500:	6e6e                	.insn	2, 0x6e6e
10000502:	6c65                	.insn	2, 0x6c65
10000504:	6120                	.insn	2, 0x6120
10000506:	6772                	.insn	2, 0x6772
10000508:	6d75                	.insn	2, 0x6d75
1000050a:	6e65                	.insn	2, 0x6e65
1000050c:	0d74                	.insn	2, 0x0d74
1000050e:	000a                	.insn	2, 0x000a
10000510:	0a0d                	.insn	2, 0x0a0d
10000512:	7245                	.insn	2, 0x7245
10000514:	6f72                	.insn	2, 0x6f72
10000516:	3a72                	.insn	2, 0x3a72
10000518:	6920                	.insn	2, 0x6920
1000051a:	766e                	.insn	2, 0x766e
1000051c:	6c61                	.insn	2, 0x6c61
1000051e:	6469                	.insn	2, 0x6469
10000520:	6420                	.insn	2, 0x6420
10000522:	7475                	.insn	2, 0x7475
10000524:	2079                	.insn	2, 0x2079
10000526:	7261                	.insn	2, 0x7261
10000528:	656d7567          	.insn	4, 0x656d7567
1000052c:	746e                	.insn	2, 0x746e
1000052e:	0a0d                	.insn	2, 0x0a0d
10000530:	0000                	.insn	2, 0x0000
10000532:	0000                	.insn	2, 0x0000
10000534:	0a0d                	.insn	2, 0x0a0d
10000536:	7245                	.insn	2, 0x7245
10000538:	6f72                	.insn	2, 0x6f72
1000053a:	3a72                	.insn	2, 0x3a72
1000053c:	6320                	.insn	2, 0x6320
1000053e:	6168                	.insn	2, 0x6168
10000540:	6e6e                	.insn	2, 0x6e6e
10000542:	6c65                	.insn	2, 0x6c65
10000544:	6f20                	.insn	2, 0x6f20
10000546:	7475                	.insn	2, 0x7475
10000548:	6f20                	.insn	2, 0x6f20
1000054a:	2066                	.insn	2, 0x2066
1000054c:	6172                	.insn	2, 0x6172
1000054e:	676e                	.insn	2, 0x676e
10000550:	0d65                	.insn	2, 0x0d65
10000552:	000a                	.insn	2, 0x000a
10000554:	0a0d                	.insn	2, 0x0a0d
10000556:	5750                	.insn	2, 0x5750
10000558:	204d                	.insn	2, 0x204d
1000055a:	6e616863          	bltu	sp,t1,10000c4a <STACK_TOP+0xfff8c4a>
1000055e:	656e                	.insn	2, 0x656e
10000560:	206c                	.insn	2, 0x206c
10000562:	0000                	.insn	2, 0x0000
10000564:	6420                	.insn	2, 0x6420
10000566:	7475                	.insn	2, 0x7475
10000568:	2079                	.insn	2, 0x2079
1000056a:	20746573          	csrrsi	a0,0x207,8
1000056e:	6f74                	.insn	2, 0x6f74
10000570:	3020                	.insn	2, 0x3020
10000572:	0078                	.insn	2, 0x0078
10000574:	0a0d                	.insn	2, 0x0a0d
10000576:	7245                	.insn	2, 0x7245
10000578:	6f72                	.insn	2, 0x6f72
1000057a:	3a72                	.insn	2, 0x3a72
1000057c:	7520                	.insn	2, 0x7520
1000057e:	6b6e                	.insn	2, 0x6b6e
10000580:	6f6e                	.insn	2, 0x6f6e
10000582:	73206e77          	.insn	4, 0x73206e77
10000586:	6275                	.insn	2, 0x6275
10000588:	2e646d63          	bltu	s0,t1,10000882 <STACK_TOP+0xfff8882>
1000058c:	5520                	.insn	2, 0x5520
1000058e:	65676173          	csrrsi	sp,hviprio1h,14
10000592:	203a                	.insn	2, 0x203a
10000594:	7770                	.insn	2, 0x7770
10000596:	206d                	.insn	2, 0x206d
10000598:	20746573          	csrrsi	a0,0x207,8
1000059c:	633c                	.insn	2, 0x633c
1000059e:	6168                	.insn	2, 0x6168
100005a0:	6e6e                	.insn	2, 0x6e6e
100005a2:	6c65                	.insn	2, 0x6c65
100005a4:	203e                	.insn	2, 0x203e
100005a6:	643c                	.insn	2, 0x643c
100005a8:	7475                	.insn	2, 0x7475
100005aa:	3e79                	.insn	2, 0x3e79
100005ac:	0a0d                	.insn	2, 0x0a0d
100005ae:	0000                	.insn	2, 0x0000
100005b0:	61656c63          	bltu	a0,s6,10000bc8 <STACK_TOP+0xfff8bc8>
100005b4:	0072                	.insn	2, 0x0072
100005b6:	0000                	.insn	2, 0x0000
100005b8:	0a0d                	.insn	2, 0x0a0d
100005ba:	7245                	.insn	2, 0x7245
100005bc:	6f72                	.insn	2, 0x6f72
100005be:	3a72                	.insn	2, 0x3a72
100005c0:	6920                	.insn	2, 0x6920
100005c2:	766e                	.insn	2, 0x766e
100005c4:	6c61                	.insn	2, 0x6c61
100005c6:	6469                	.insn	2, 0x6469
100005c8:	6320                	.insn	2, 0x6320
100005ca:	726f6c6f          	jal	s8,100f6cf0 <STACK_TOP+0x100eecf0>
100005ce:	6620                	.insn	2, 0x6620
100005d0:	616d726f          	jal	tp,100d7be6 <STACK_TOP+0x100cfbe6>
100005d4:	2e74                	.insn	2, 0x2e74
100005d6:	5520                	.insn	2, 0x5520
100005d8:	65676173          	csrrsi	sp,hviprio1h,14
100005dc:	203a                	.insn	2, 0x203a
100005de:	6776                	.insn	2, 0x6776
100005e0:	2061                	.insn	2, 0x2061
100005e2:	61656c63          	bltu	a0,s6,10000bfa <STACK_TOP+0xfff8bfa>
100005e6:	2072                	.insn	2, 0x2072
100005e8:	7830                	.insn	2, 0x7830
100005ea:	3131                	.insn	2, 0x3131
100005ec:	3232                	.insn	2, 0x3232
100005ee:	0a0d3333          	.insn	4, 0x0a0d3333
100005f2:	0000                	.insn	2, 0x0000
100005f4:	0a0d                	.insn	2, 0x0a0d
100005f6:	4756                	.insn	2, 0x4756
100005f8:	2041                	.insn	2, 0x2041
100005fa:	61656c63          	bltu	a0,s6,10000c12 <STACK_TOP+0xfff8c12>
100005fe:	6572                	.insn	2, 0x6572
10000600:	2064                	.insn	2, 0x2064
10000602:	68746977          	.insn	4, 0x68746977
10000606:	6320                	.insn	2, 0x6320
10000608:	726f6c6f          	jal	s8,100f6d2e <STACK_TOP+0x100eed2e>
1000060c:	203a                	.insn	2, 0x203a
1000060e:	7830                	.insn	2, 0x7830
10000610:	0000                	.insn	2, 0x0000
10000612:	0000                	.insn	2, 0x0000
10000614:	6162                	.insn	2, 0x6162
10000616:	7372                	.insn	2, 0x7372
10000618:	0000                	.insn	2, 0x0000
1000061a:	0000                	.insn	2, 0x0000
1000061c:	0a0d                	.insn	2, 0x0a0d
1000061e:	4756                	.insn	2, 0x4756
10000620:	2041                	.insn	2, 0x2041
10000622:	6f6c6f63          	bltu	s8,s6,10000d20 <STACK_TOP+0xfff8d20>
10000626:	2072                	.insn	2, 0x2072
10000628:	6162                	.insn	2, 0x6162
1000062a:	7372                	.insn	2, 0x7372
1000062c:	6420                	.insn	2, 0x6420
1000062e:	6172                	.insn	2, 0x6172
10000630:	0d216e77          	.insn	4, 0x0d216e77
10000634:	000a                	.insn	2, 0x000a
10000636:	0000                	.insn	2, 0x0000
10000638:	0a0d                	.insn	2, 0x0a0d
1000063a:	7245                	.insn	2, 0x7245
1000063c:	6f72                	.insn	2, 0x6f72
1000063e:	3a72                	.insn	2, 0x3a72
10000640:	7520                	.insn	2, 0x7520
10000642:	6b6e                	.insn	2, 0x6b6e
10000644:	6f6e                	.insn	2, 0x6f6e
10000646:	56206e77          	.insn	4, 0x56206e77
1000064a:	73204147          	.insn	4, 0x73204147
1000064e:	6275                	.insn	2, 0x6275
10000650:	2e646d63          	bltu	s0,t1,1000094a <STACK_TOP+0xfff894a>
10000654:	5520                	.insn	2, 0x5520
10000656:	65676173          	csrrsi	sp,hviprio1h,14
1000065a:	0d3a                	.insn	2, 0x0d3a
1000065c:	200a                	.insn	2, 0x200a
1000065e:	2020                	.insn	2, 0x2020
10000660:	7620                	.insn	2, 0x7620
10000662:	63206167          	.insn	4, 0x63206167
10000666:	656c                	.insn	2, 0x656c
10000668:	7261                	.insn	2, 0x7261
1000066a:	3c20                	.insn	2, 0x3c20
1000066c:	6568                	.insn	2, 0x6568
1000066e:	5f78                	.insn	2, 0x5f78
10000670:	6f6c6f63          	bltu	s8,s6,10000d6e <STACK_TOP+0xfff8d6e>
10000674:	3e72                	.insn	2, 0x3e72
10000676:	2020                	.insn	2, 0x2020
10000678:	6520                	.insn	2, 0x6520
1000067a:	672e                	.insn	2, 0x672e
1000067c:	202e                	.insn	2, 0x202e
1000067e:	6776                	.insn	2, 0x6776
10000680:	2061                	.insn	2, 0x2061
10000682:	61656c63          	bltu	a0,s6,10000c9a <STACK_TOP+0xfff8c9a>
10000686:	2072                	.insn	2, 0x2072
10000688:	7830                	.insn	2, 0x7830
1000068a:	3131                	.insn	2, 0x3131
1000068c:	3232                	.insn	2, 0x3232
1000068e:	0a0d3333          	.insn	4, 0x0a0d3333
10000692:	2020                	.insn	2, 0x2020
10000694:	2020                	.insn	2, 0x2020
10000696:	6776                	.insn	2, 0x6776
10000698:	2061                	.insn	2, 0x2061
1000069a:	6162                	.insn	2, 0x6162
1000069c:	7372                	.insn	2, 0x7372
1000069e:	0a0d                	.insn	2, 0x0a0d
100006a0:	0000                	.insn	2, 0x0000
100006a2:	0000                	.insn	2, 0x0000
100006a4:	0a0d                	.insn	2, 0x0a0d
100006a6:	7355                	.insn	2, 0x7355
100006a8:	6761                	.insn	2, 0x6761
100006aa:	3a65                	.insn	2, 0x3a65
100006ac:	7420                	.insn	2, 0x7420
100006ae:	6d69                	.insn	2, 0x6d69
100006b0:	7265                	.insn	2, 0x7265
100006b2:	7320                	.insn	2, 0x7320
100006b4:	7465                	.insn	2, 0x7465
100006b6:	3c20                	.insn	2, 0x3c20
100006b8:	6e69                	.insn	2, 0x6e69
100006ba:	6574                	.insn	2, 0x6574
100006bc:	7672                	.insn	2, 0x7672
100006be:	6c61                	.insn	2, 0x6c61
100006c0:	0d3e                	.insn	2, 0x0d3e
100006c2:	000a                	.insn	2, 0x000a
100006c4:	0a0d                	.insn	2, 0x0a0d
100006c6:	7245                	.insn	2, 0x7245
100006c8:	6f72                	.insn	2, 0x6f72
100006ca:	3a72                	.insn	2, 0x3a72
100006cc:	6920                	.insn	2, 0x6920
100006ce:	766e                	.insn	2, 0x766e
100006d0:	6c61                	.insn	2, 0x6c61
100006d2:	6469                	.insn	2, 0x6469
100006d4:	6920                	.insn	2, 0x6920
100006d6:	746e                	.insn	2, 0x746e
100006d8:	7265                	.insn	2, 0x7265
100006da:	6176                	.insn	2, 0x6176
100006dc:	206c                	.insn	2, 0x206c
100006de:	6176                	.insn	2, 0x6176
100006e0:	756c                	.insn	2, 0x756c
100006e2:	0d65                	.insn	2, 0x0d65
100006e4:	000a                	.insn	2, 0x000a
100006e6:	0000                	.insn	2, 0x0000
100006e8:	0a0d                	.insn	2, 0x0a0d
100006ea:	6954                	.insn	2, 0x6954
100006ec:	656d                	.insn	2, 0x656d
100006ee:	2072                	.insn	2, 0x2072
100006f0:	6e69                	.insn	2, 0x6e69
100006f2:	6574                	.insn	2, 0x6574
100006f4:	7272                	.insn	2, 0x7272
100006f6:	7075                	.insn	2, 0x7075
100006f8:	2074                	.insn	2, 0x2074
100006fa:	21746573          	csrrsi	a0,0x217,8
100006fe:	5720                	.insn	2, 0x5720
10000700:	6c69                	.insn	2, 0x6c69
10000702:	206c                	.insn	2, 0x206c
10000704:	7274                	.insn	2, 0x7274
10000706:	6769                	.insn	2, 0x6769
10000708:	20726567          	.insn	4, 0x20726567
1000070c:	6661                	.insn	2, 0x6661
1000070e:	6574                	.insn	2, 0x6574
10000710:	2072                	.insn	2, 0x2072
10000712:	0000                	.insn	2, 0x0000
10000714:	6320                	.insn	2, 0x6320
10000716:	6379                	.insn	2, 0x6379
10000718:	656c                	.insn	2, 0x656c
1000071a:	000a0d73          	.insn	4, 0x000a0d73
1000071e:	0000                	.insn	2, 0x0000
10000720:	0a0d                	.insn	2, 0x0a0d
10000722:	6e55                	.insn	2, 0x6e55
10000724:	776f6e6b          	.insn	4, 0x776f6e6b
10000728:	206e                	.insn	2, 0x206e
1000072a:	63627573          	csrrci	a0,0x636,4
1000072e:	646d                	.insn	2, 0x646d
10000730:	202e                	.insn	2, 0x202e
10000732:	7355                	.insn	2, 0x7355
10000734:	6761                	.insn	2, 0x6761
10000736:	3a65                	.insn	2, 0x3a65
10000738:	7420                	.insn	2, 0x7420
1000073a:	6d69                	.insn	2, 0x6d69
1000073c:	7265                	.insn	2, 0x7265
1000073e:	7320                	.insn	2, 0x7320
10000740:	7465                	.insn	2, 0x7465
10000742:	3c20                	.insn	2, 0x3c20
10000744:	6e69                	.insn	2, 0x6e69
10000746:	6574                	.insn	2, 0x6574
10000748:	7672                	.insn	2, 0x7672
1000074a:	6c61                	.insn	2, 0x6c61
1000074c:	0d3e                	.insn	2, 0x0d3e
1000074e:	000a                	.insn	2, 0x000a
10000750:	6f697067          	.insn	4, 0x6f697067
10000754:	0000                	.insn	2, 0x0000
10000756:	0000                	.insn	2, 0x0000
10000758:	656d                	.insn	2, 0x656d
1000075a:	006d                	.insn	2, 0x006d
1000075c:	7770                	.insn	2, 0x7770
1000075e:	006d                	.insn	2, 0x006d
10000760:	6776                	.insn	2, 0x6776
10000762:	0061                	.insn	2, 0x0061
10000764:	6974                	.insn	2, 0x6974
10000766:	656d                	.insn	2, 0x656d
10000768:	0072                	.insn	2, 0x0072
1000076a:	0000                	.insn	2, 0x0000
1000076c:	6568                	.insn	2, 0x6568
1000076e:	706c                	.insn	2, 0x706c
10000770:	0000                	.insn	2, 0x0000
10000772:	0000                	.insn	2, 0x0000
10000774:	0a0d                	.insn	2, 0x0a0d
10000776:	70707553          	.insn	4, 0x70707553
1000077a:	6574726f          	jal	tp,100485d0 <STACK_TOP+0x100405d0>
1000077e:	2064                	.insn	2, 0x2064
10000780:	6d6d6f43          	.insn	4, 0x6d6d6f43
10000784:	6e61                	.insn	2, 0x6e61
10000786:	3a64                	.insn	2, 0x3a64
10000788:	0a0d                	.insn	2, 0x0a0d
1000078a:	2020                	.insn	2, 0x2020
1000078c:	2020                	.insn	2, 0x2020
1000078e:	6f697067          	.insn	4, 0x6f697067
10000792:	3c20                	.insn	2, 0x3c20
10000794:	6e69                	.insn	2, 0x6e69
10000796:	6f7c                	.insn	2, 0x6f7c
10000798:	7475                	.insn	2, 0x7475
1000079a:	203e                	.insn	2, 0x203e
1000079c:	7865685b          	.insn	4, 0x7865685b
100007a0:	765f 6c61 6575      	.insn	6, 0x65756c61765f
100007a6:	0d5d                	.insn	2, 0x0d5d
100007a8:	200a                	.insn	2, 0x200a
100007aa:	2020                	.insn	2, 0x2020
100007ac:	6d20                	.insn	2, 0x6d20
100007ae:	6d65                	.insn	2, 0x6d65
100007b0:	3c20                	.insn	2, 0x3c20
100007b2:	6572                	.insn	2, 0x6572
100007b4:	6461                	.insn	2, 0x6461
100007b6:	777c                	.insn	2, 0x777c
100007b8:	6972                	.insn	2, 0x6972
100007ba:	6574                	.insn	2, 0x6574
100007bc:	317c385b          	.insn	4, 0x317c385b
100007c0:	7c36                	.insn	2, 0x7c36
100007c2:	3e5d3233          	.insn	4, 0x3e5d3233
100007c6:	3c20                	.insn	2, 0x3c20
100007c8:	6461                	.insn	2, 0x6461
100007ca:	7264                	.insn	2, 0x7264
100007cc:	203e                	.insn	2, 0x203e
100007ce:	7865685b          	.insn	4, 0x7865685b
100007d2:	765f 6c61 6575      	.insn	6, 0x65756c61765f
100007d8:	0d5d                	.insn	2, 0x0d5d
100007da:	200a                	.insn	2, 0x200a
100007dc:	2020                	.insn	2, 0x2020
100007de:	7020                	.insn	2, 0x7020
100007e0:	73206d77          	.insn	4, 0x73206d77
100007e4:	7465                	.insn	2, 0x7465
100007e6:	3c20                	.insn	2, 0x3c20
100007e8:	6e616863          	bltu	sp,t1,10000ed8 <STACK_TOP+0xfff8ed8>
100007ec:	656e                	.insn	2, 0x656e
100007ee:	3e6c                	.insn	2, 0x3e6c
100007f0:	3c20                	.insn	2, 0x3c20
100007f2:	7564                	.insn	2, 0x7564
100007f4:	7974                	.insn	2, 0x7974
100007f6:	0d3e                	.insn	2, 0x0d3e
100007f8:	200a                	.insn	2, 0x200a
100007fa:	2020                	.insn	2, 0x2020
100007fc:	7620                	.insn	2, 0x7620
100007fe:	3c206167          	.insn	4, 0x3c206167
10000802:	61656c63          	bltu	a0,s6,10000e1a <STACK_TOP+0xfff8e1a>
10000806:	7c72                	.insn	2, 0x7c72
10000808:	6162                	.insn	2, 0x6162
1000080a:	7372                	.insn	2, 0x7372
1000080c:	203e                	.insn	2, 0x203e
1000080e:	7865685b          	.insn	4, 0x7865685b
10000812:	635f 6c6f 726f      	.insn	6, 0x726f6c6f635f
10000818:	0d5d                	.insn	2, 0x0d5d
1000081a:	200a                	.insn	2, 0x200a
1000081c:	2020                	.insn	2, 0x2020
1000081e:	7420                	.insn	2, 0x7420
10000820:	6d69                	.insn	2, 0x6d69
10000822:	7265                	.insn	2, 0x7265
10000824:	7320                	.insn	2, 0x7320
10000826:	7465                	.insn	2, 0x7465
10000828:	3c20                	.insn	2, 0x3c20
1000082a:	6e69                	.insn	2, 0x6e69
1000082c:	6574                	.insn	2, 0x6574
1000082e:	7672                	.insn	2, 0x7672
10000830:	6c61                	.insn	2, 0x6c61
10000832:	0d3e                	.insn	2, 0x0d3e
10000834:	000a                	.insn	2, 0x000a
10000836:	0000                	.insn	2, 0x0000
10000838:	0a0d                	.insn	2, 0x0a0d
1000083a:	6e55                	.insn	2, 0x6e55
1000083c:	776f6e6b          	.insn	4, 0x776f6e6b
10000840:	206e                	.insn	2, 0x206e
10000842:	6d6d6f63          	bltu	s10,s6,10000f20 <STACK_TOP+0xfff8f20>
10000846:	6e61                	.insn	2, 0x6e61
10000848:	2e64                	.insn	2, 0x2e64
1000084a:	5420                	.insn	2, 0x5420
1000084c:	7079                	.insn	2, 0x7079
1000084e:	2065                	.insn	2, 0x2065
10000850:	6c656827          	.insn	4, 0x6c656827
10000854:	2770                	.insn	2, 0x2770
10000856:	0a0d                	.insn	2, 0x0a0d
10000858:	0000                	.insn	2, 0x0000
1000085a:	0000                	.insn	2, 0x0000
1000085c:	203e                	.insn	2, 0x203e
1000085e:	0000                	.insn	2, 0x0000
10000860:	0a0d                	.insn	2, 0x0a0d
10000862:	5152495b          	.insn	4, 0x5152495b
10000866:	205d                	.insn	2, 0x205d
10000868:	7845                	.insn	2, 0x7845
1000086a:	6574                	.insn	2, 0x6574
1000086c:	6e72                	.insn	2, 0x6e72
1000086e:	6c61                	.insn	2, 0x6c61
10000870:	6920                	.insn	2, 0x6920
10000872:	746e                	.insn	2, 0x746e
10000874:	7265                	.insn	2, 0x7265
10000876:	7572                	.insn	2, 0x7572
10000878:	7470                	.insn	2, 0x7470
1000087a:	7420                	.insn	2, 0x7420
1000087c:	6972                	.insn	2, 0x6972
1000087e:	72656767          	.insn	4, 0x72656767
10000882:	6465                	.insn	2, 0x6465
10000884:	0d21                	.insn	2, 0x0d21
10000886:	000a                	.insn	2, 0x000a
10000888:	0a0d                	.insn	2, 0x0a0d
1000088a:	5152495b          	.insn	4, 0x5152495b
1000088e:	205d                	.insn	2, 0x205d
10000890:	6954                	.insn	2, 0x6954
10000892:	656d                	.insn	2, 0x656d
10000894:	2072                	.insn	2, 0x2072
10000896:	6e69                	.insn	2, 0x6e69
10000898:	6574                	.insn	2, 0x6574
1000089a:	7272                	.insn	2, 0x7272
1000089c:	7075                	.insn	2, 0x7075
1000089e:	2074                	.insn	2, 0x2074
100008a0:	7274                	.insn	2, 0x7274
100008a2:	6769                	.insn	2, 0x6769
100008a4:	65726567          	.insn	4, 0x65726567
100008a8:	2164                	.insn	2, 0x2164
100008aa:	0a0d                	.insn	2, 0x0a0d
100008ac:	0000                	.insn	2, 0x0000
100008ae:	0000                	.insn	2, 0x0000
100008b0:	5152495b          	.insn	4, 0x5152495b
100008b4:	205d                	.insn	2, 0x205d
100008b6:	656d                	.insn	2, 0x656d
100008b8:	6370                	.insn	2, 0x6370
100008ba:	003d                	.insn	2, 0x003d
100008bc:	636c6557          	.insn	4, 0x636c6557
100008c0:	20656d6f          	jal	s10,10056ac6 <STACK_TOP+0x1004eac6>
100008c4:	6f74                	.insn	2, 0x6f74
100008c6:	5020                	.insn	2, 0x5020
100008c8:	5361                	.insn	2, 0x5361
100008ca:	5520436f          	jal	t1,10004e1c <STACK_TOP+0xfffce1c>
100008ce:	5241                	.insn	2, 0x5241
100008d0:	2054                	.insn	2, 0x2054
100008d2:	736e6f63          	bltu	t3,s6,10001010 <STACK_TOP+0xfff9010>
100008d6:	21656c6f          	jal	s8,10056aec <STACK_TOP+0x1004eaec>
100008da:	0a0d                	.insn	2, 0x0a0d
	...

Disassembly of section .riscv.attributes:

00000000 <.riscv.attributes>:
   0:	3641                	.insn	2, 0x3641
   2:	0000                	.insn	2, 0x0000
   4:	7200                	.insn	2, 0x7200
   6:	7369                	.insn	2, 0x7369
   8:	01007663          	bgeu	zero,a6,14 <_start+0x14>
   c:	002c                	.insn	2, 0x002c
   e:	0000                	.insn	2, 0x0000
  10:	1004                	.insn	2, 0x1004
  12:	7205                	.insn	2, 0x7205
  14:	3376                	.insn	2, 0x3376
  16:	6932                	.insn	2, 0x6932
  18:	7032                	.insn	2, 0x7032
  1a:	5f31                	.insn	2, 0x5f31
  1c:	326d                	.insn	2, 0x326d
  1e:	3070                	.insn	2, 0x3070
  20:	7a5f 6369 7273      	.insn	6, 0x727363697a5f
  26:	7032                	.insn	2, 0x7032
  28:	5f30                	.insn	2, 0x5f30
  2a:	6d7a                	.insn	2, 0x6d7a
  2c:	756d                	.insn	2, 0x756d
  2e:	316c                	.insn	2, 0x316c
  30:	3070                	.insn	2, 0x3070
  32:	0800                	.insn	2, 0x0800
  34:	0a01                	.insn	2, 0x0a01
  36:	0b                	.byte	0x0b

Disassembly of section .comment:

00000000 <.comment>:
   0:	3a434347          	.insn	4, 0x3a434347
   4:	2820                	.insn	2, 0x2820
   6:	2029                	.insn	2, 0x2029
   8:	3531                	.insn	2, 0x3531
   a:	312e                	.insn	2, 0x312e
   c:	302e                	.insn	2, 0x302e
	...
