
/tmp/tmp.547BfV5Pqv/bios.elf:     file format elf32-littleriscv


Disassembly of section .text:

00000000 <_start>:
       0:	40008117          	auipc	sp,0x40008
       4:	00010113          	mv	sp,sp
       8:	300002b7          	lui	t0,0x30000
       c:	00028023          	sb	zero,0(t0) # 30000000 <STACK_TOP+0x2fff8000>
      10:	2f4010ef          	jal	1304 <main>
      14:	01400293          	li	t0,20
      18:	fff28293          	addi	t0,t0,-1
      1c:	fe029ee3          	bnez	t0,18 <_start+0x18>
      20:	c0001073          	unimp
      24:	0000006f          	j	24 <_start+0x24>

00000028 <print_char>:
      28:	fe010113          	addi	sp,sp,-32 # 40007fe0 <_stack_limit+0x3fe0>
      2c:	00112e23          	sw	ra,28(sp)
      30:	00812c23          	sw	s0,24(sp)
      34:	02010413          	addi	s0,sp,32
      38:	00050793          	mv	a5,a0
      3c:	fef407a3          	sb	a5,-17(s0)
      40:	300007b7          	lui	a5,0x30000
      44:	fef44703          	lbu	a4,-17(s0)
      48:	00e78023          	sb	a4,0(a5) # 30000000 <STACK_TOP+0x2fff8000>
      4c:	00000013          	nop
      50:	01c12083          	lw	ra,28(sp)
      54:	01812403          	lw	s0,24(sp)
      58:	02010113          	addi	sp,sp,32
      5c:	00008067          	ret

00000060 <print_str>:
      60:	fe010113          	addi	sp,sp,-32
      64:	00112e23          	sw	ra,28(sp)
      68:	00812c23          	sw	s0,24(sp)
      6c:	02010413          	addi	s0,sp,32
      70:	fea42623          	sw	a0,-20(s0)
      74:	01c0006f          	j	90 <print_str+0x30>
      78:	fec42783          	lw	a5,-20(s0)
      7c:	00178713          	addi	a4,a5,1
      80:	fee42623          	sw	a4,-20(s0)
      84:	0007c783          	lbu	a5,0(a5)
      88:	00078513          	mv	a0,a5
      8c:	f9dff0ef          	jal	28 <print_char>
      90:	fec42783          	lw	a5,-20(s0)
      94:	0007c783          	lbu	a5,0(a5)
      98:	fe0790e3          	bnez	a5,78 <print_str+0x18>
      9c:	00000013          	nop
      a0:	00000013          	nop
      a4:	01c12083          	lw	ra,28(sp)
      a8:	01812403          	lw	s0,24(sp)
      ac:	02010113          	addi	sp,sp,32
      b0:	00008067          	ret

000000b4 <print_hex>:
      b4:	fd010113          	addi	sp,sp,-48
      b8:	02112623          	sw	ra,44(sp)
      bc:	02812423          	sw	s0,40(sp)
      c0:	03010413          	addi	s0,sp,48
      c4:	fca42e23          	sw	a0,-36(s0)
      c8:	fcb42c23          	sw	a1,-40(s0)
      cc:	fd842783          	lw	a5,-40(s0)
      d0:	fff78793          	addi	a5,a5,-1
      d4:	00279793          	slli	a5,a5,0x2
      d8:	fef42623          	sw	a5,-20(s0)
      dc:	0380006f          	j	114 <print_hex+0x60>
      e0:	fec42783          	lw	a5,-20(s0)
      e4:	fdc42703          	lw	a4,-36(s0)
      e8:	00f757b3          	srl	a5,a4,a5
      ec:	00f7f793          	andi	a5,a5,15
      f0:	10000737          	lui	a4,0x10000
      f4:	00070713          	mv	a4,a4
      f8:	00f707b3          	add	a5,a4,a5
      fc:	0007c783          	lbu	a5,0(a5)
     100:	00078513          	mv	a0,a5
     104:	f25ff0ef          	jal	28 <print_char>
     108:	fec42783          	lw	a5,-20(s0)
     10c:	ffc78793          	addi	a5,a5,-4
     110:	fef42623          	sw	a5,-20(s0)
     114:	fec42783          	lw	a5,-20(s0)
     118:	fc07d4e3          	bgez	a5,e0 <print_hex+0x2c>
     11c:	00000013          	nop
     120:	00000013          	nop
     124:	02c12083          	lw	ra,44(sp)
     128:	02812403          	lw	s0,40(sp)
     12c:	03010113          	addi	sp,sp,48
     130:	00008067          	ret

00000134 <gpio_read_in>:
     134:	ff010113          	addi	sp,sp,-16
     138:	00112623          	sw	ra,12(sp)
     13c:	00812423          	sw	s0,8(sp)
     140:	01010413          	addi	s0,sp,16
     144:	00000793          	li	a5,0
     148:	0007a783          	lw	a5,0(a5)
     14c:	00078513          	mv	a0,a5
     150:	00c12083          	lw	ra,12(sp)
     154:	00812403          	lw	s0,8(sp)
     158:	01010113          	addi	sp,sp,16
     15c:	00008067          	ret

00000160 <gpio_write_out>:
     160:	fe010113          	addi	sp,sp,-32
     164:	00112e23          	sw	ra,28(sp)
     168:	00812c23          	sw	s0,24(sp)
     16c:	02010413          	addi	s0,sp,32
     170:	fea42623          	sw	a0,-20(s0)
     174:	00400793          	li	a5,4
     178:	fec42703          	lw	a4,-20(s0)
     17c:	00e7a023          	sw	a4,0(a5)
     180:	00000013          	nop
     184:	01c12083          	lw	ra,28(sp)
     188:	01812403          	lw	s0,24(sp)
     18c:	02010113          	addi	sp,sp,32
     190:	00008067          	ret

00000194 <strcmp>:
     194:	fe010113          	addi	sp,sp,-32
     198:	00112e23          	sw	ra,28(sp)
     19c:	00812c23          	sw	s0,24(sp)
     1a0:	02010413          	addi	s0,sp,32
     1a4:	fea42623          	sw	a0,-20(s0)
     1a8:	feb42423          	sw	a1,-24(s0)
     1ac:	01c0006f          	j	1c8 <strcmp+0x34>
     1b0:	fec42783          	lw	a5,-20(s0)
     1b4:	00178793          	addi	a5,a5,1
     1b8:	fef42623          	sw	a5,-20(s0)
     1bc:	fe842783          	lw	a5,-24(s0)
     1c0:	00178793          	addi	a5,a5,1
     1c4:	fef42423          	sw	a5,-24(s0)
     1c8:	fec42783          	lw	a5,-20(s0)
     1cc:	0007c783          	lbu	a5,0(a5)
     1d0:	02078263          	beqz	a5,1f4 <strcmp+0x60>
     1d4:	fe842783          	lw	a5,-24(s0)
     1d8:	0007c783          	lbu	a5,0(a5)
     1dc:	00078c63          	beqz	a5,1f4 <strcmp+0x60>
     1e0:	fec42783          	lw	a5,-20(s0)
     1e4:	0007c703          	lbu	a4,0(a5)
     1e8:	fe842783          	lw	a5,-24(s0)
     1ec:	0007c783          	lbu	a5,0(a5)
     1f0:	fcf700e3          	beq	a4,a5,1b0 <strcmp+0x1c>
     1f4:	fec42783          	lw	a5,-20(s0)
     1f8:	0007c783          	lbu	a5,0(a5)
     1fc:	00078713          	mv	a4,a5
     200:	fe842783          	lw	a5,-24(s0)
     204:	0007c783          	lbu	a5,0(a5)
     208:	40f707b3          	sub	a5,a4,a5
     20c:	00078513          	mv	a0,a5
     210:	01c12083          	lw	ra,28(sp)
     214:	01812403          	lw	s0,24(sp)
     218:	02010113          	addi	sp,sp,32
     21c:	00008067          	ret

00000220 <get_char_noecho>:
     220:	fe010113          	addi	sp,sp,-32
     224:	00112e23          	sw	ra,28(sp)
     228:	00812c23          	sw	s0,24(sp)
     22c:	02010413          	addi	s0,sp,32
     230:	300007b7          	lui	a5,0x30000
     234:	00478793          	addi	a5,a5,4 # 30000004 <STACK_TOP+0x2fff8004>
     238:	0007c783          	lbu	a5,0(a5)
     23c:	fef407a3          	sb	a5,-17(s0)
     240:	fef44783          	lbu	a5,-17(s0)
     244:	00078513          	mv	a0,a5
     248:	01c12083          	lw	ra,28(sp)
     24c:	01812403          	lw	s0,24(sp)
     250:	02010113          	addi	sp,sp,32
     254:	00008067          	ret

00000258 <write_mem>:
     258:	fe010113          	addi	sp,sp,-32
     25c:	00112e23          	sw	ra,28(sp)
     260:	00812c23          	sw	s0,24(sp)
     264:	02010413          	addi	s0,sp,32
     268:	fea42623          	sw	a0,-20(s0)
     26c:	feb42423          	sw	a1,-24(s0)
     270:	fec42783          	lw	a5,-20(s0)
     274:	fe842703          	lw	a4,-24(s0)
     278:	00e7a023          	sw	a4,0(a5)
     27c:	00000013          	nop
     280:	01c12083          	lw	ra,28(sp)
     284:	01812403          	lw	s0,24(sp)
     288:	02010113          	addi	sp,sp,32
     28c:	00008067          	ret

00000290 <read_mem>:
     290:	fe010113          	addi	sp,sp,-32
     294:	00112e23          	sw	ra,28(sp)
     298:	00812c23          	sw	s0,24(sp)
     29c:	02010413          	addi	s0,sp,32
     2a0:	fea42623          	sw	a0,-20(s0)
     2a4:	fec42783          	lw	a5,-20(s0)
     2a8:	0007a783          	lw	a5,0(a5)
     2ac:	00078513          	mv	a0,a5
     2b0:	01c12083          	lw	ra,28(sp)
     2b4:	01812403          	lw	s0,24(sp)
     2b8:	02010113          	addi	sp,sp,32
     2bc:	00008067          	ret

000002c0 <write_mem16>:
     2c0:	fe010113          	addi	sp,sp,-32
     2c4:	00112e23          	sw	ra,28(sp)
     2c8:	00812c23          	sw	s0,24(sp)
     2cc:	02010413          	addi	s0,sp,32
     2d0:	fea42623          	sw	a0,-20(s0)
     2d4:	00058793          	mv	a5,a1
     2d8:	fef41523          	sh	a5,-22(s0)
     2dc:	fec42783          	lw	a5,-20(s0)
     2e0:	fea45703          	lhu	a4,-22(s0)
     2e4:	00e79023          	sh	a4,0(a5)
     2e8:	00000013          	nop
     2ec:	01c12083          	lw	ra,28(sp)
     2f0:	01812403          	lw	s0,24(sp)
     2f4:	02010113          	addi	sp,sp,32
     2f8:	00008067          	ret

000002fc <read_mem16>:
     2fc:	fe010113          	addi	sp,sp,-32
     300:	00112e23          	sw	ra,28(sp)
     304:	00812c23          	sw	s0,24(sp)
     308:	02010413          	addi	s0,sp,32
     30c:	fea42623          	sw	a0,-20(s0)
     310:	fec42783          	lw	a5,-20(s0)
     314:	0007d783          	lhu	a5,0(a5)
     318:	01079793          	slli	a5,a5,0x10
     31c:	0107d793          	srli	a5,a5,0x10
     320:	00078513          	mv	a0,a5
     324:	01c12083          	lw	ra,28(sp)
     328:	01812403          	lw	s0,24(sp)
     32c:	02010113          	addi	sp,sp,32
     330:	00008067          	ret

00000334 <write_mem8>:
     334:	fe010113          	addi	sp,sp,-32
     338:	00112e23          	sw	ra,28(sp)
     33c:	00812c23          	sw	s0,24(sp)
     340:	02010413          	addi	s0,sp,32
     344:	fea42623          	sw	a0,-20(s0)
     348:	00058793          	mv	a5,a1
     34c:	fef405a3          	sb	a5,-21(s0)
     350:	fec42783          	lw	a5,-20(s0)
     354:	feb44703          	lbu	a4,-21(s0)
     358:	00e78023          	sb	a4,0(a5)
     35c:	00000013          	nop
     360:	01c12083          	lw	ra,28(sp)
     364:	01812403          	lw	s0,24(sp)
     368:	02010113          	addi	sp,sp,32
     36c:	00008067          	ret

00000370 <read_mem8>:
     370:	fe010113          	addi	sp,sp,-32
     374:	00112e23          	sw	ra,28(sp)
     378:	00812c23          	sw	s0,24(sp)
     37c:	02010413          	addi	s0,sp,32
     380:	fea42623          	sw	a0,-20(s0)
     384:	fec42783          	lw	a5,-20(s0)
     388:	0007c783          	lbu	a5,0(a5)
     38c:	0ff7f793          	zext.b	a5,a5
     390:	00078513          	mv	a0,a5
     394:	01c12083          	lw	ra,28(sp)
     398:	01812403          	lw	s0,24(sp)
     39c:	02010113          	addi	sp,sp,32
     3a0:	00008067          	ret

000003a4 <get_str_with_history>:
     3a4:	fd010113          	addi	sp,sp,-48
     3a8:	02112623          	sw	ra,44(sp)
     3ac:	02812423          	sw	s0,40(sp)
     3b0:	03010413          	addi	s0,sp,48
     3b4:	fca42e23          	sw	a0,-36(s0)
     3b8:	fcb42c23          	sw	a1,-40(s0)
     3bc:	fcc42a23          	sw	a2,-44(s0)
     3c0:	fe042623          	sw	zero,-20(s0)
     3c4:	fe042423          	sw	zero,-24(s0)
     3c8:	e59ff0ef          	jal	220 <get_char_noecho>
     3cc:	00050793          	mv	a5,a0
     3d0:	fef401a3          	sb	a5,-29(s0)
     3d4:	fe344703          	lbu	a4,-29(s0)
     3d8:	01b00793          	li	a5,27
     3dc:	14f71a63          	bne	a4,a5,530 <get_str_with_history+0x18c>
     3e0:	e41ff0ef          	jal	220 <get_char_noecho>
     3e4:	00050793          	mv	a5,a0
     3e8:	fef40123          	sb	a5,-30(s0)
     3ec:	fe244703          	lbu	a4,-30(s0)
     3f0:	05b00793          	li	a5,91
     3f4:	20f71663          	bne	a4,a5,600 <get_str_with_history+0x25c>
     3f8:	e29ff0ef          	jal	220 <get_char_noecho>
     3fc:	00050793          	mv	a5,a0
     400:	fef400a3          	sb	a5,-31(s0)
     404:	fe144703          	lbu	a4,-31(s0)
     408:	04100793          	li	a5,65
     40c:	0cf71463          	bne	a4,a5,4d4 <get_str_with_history+0x130>
     410:	0280006f          	j	438 <get_str_with_history+0x94>
     414:	00800513          	li	a0,8
     418:	c11ff0ef          	jal	28 <print_char>
     41c:	02000513          	li	a0,32
     420:	c09ff0ef          	jal	28 <print_char>
     424:	00800513          	li	a0,8
     428:	c01ff0ef          	jal	28 <print_char>
     42c:	fec42783          	lw	a5,-20(s0)
     430:	fff78793          	addi	a5,a5,-1
     434:	fef42623          	sw	a5,-20(s0)
     438:	fec42783          	lw	a5,-20(s0)
     43c:	fcf04ce3          	bgtz	a5,414 <get_str_with_history+0x70>
     440:	fe042223          	sw	zero,-28(s0)
     444:	0480006f          	j	48c <get_str_with_history+0xe8>
     448:	fe442783          	lw	a5,-28(s0)
     44c:	fd442703          	lw	a4,-44(s0)
     450:	00f70733          	add	a4,a4,a5
     454:	fe442783          	lw	a5,-28(s0)
     458:	fdc42683          	lw	a3,-36(s0)
     45c:	00f687b3          	add	a5,a3,a5
     460:	00074703          	lbu	a4,0(a4) # 10000000 <STACK_TOP+0xfff8000>
     464:	00e78023          	sb	a4,0(a5)
     468:	fe442783          	lw	a5,-28(s0)
     46c:	fdc42703          	lw	a4,-36(s0)
     470:	00f707b3          	add	a5,a4,a5
     474:	0007c783          	lbu	a5,0(a5)
     478:	00078513          	mv	a0,a5
     47c:	badff0ef          	jal	28 <print_char>
     480:	fe442783          	lw	a5,-28(s0)
     484:	00178793          	addi	a5,a5,1
     488:	fef42223          	sw	a5,-28(s0)
     48c:	fe442783          	lw	a5,-28(s0)
     490:	fd442703          	lw	a4,-44(s0)
     494:	00f707b3          	add	a5,a4,a5
     498:	0007c783          	lbu	a5,0(a5)
     49c:	00078a63          	beqz	a5,4b0 <get_str_with_history+0x10c>
     4a0:	fd842783          	lw	a5,-40(s0)
     4a4:	fff78793          	addi	a5,a5,-1
     4a8:	fe442703          	lw	a4,-28(s0)
     4ac:	f8f74ee3          	blt	a4,a5,448 <get_str_with_history+0xa4>
     4b0:	fe442783          	lw	a5,-28(s0)
     4b4:	fef42623          	sw	a5,-20(s0)
     4b8:	fec42783          	lw	a5,-20(s0)
     4bc:	fdc42703          	lw	a4,-36(s0)
     4c0:	00f707b3          	add	a5,a4,a5
     4c4:	00078023          	sb	zero,0(a5)
     4c8:	00100793          	li	a5,1
     4cc:	fef42423          	sw	a5,-24(s0)
     4d0:	13c0006f          	j	60c <get_str_with_history+0x268>
     4d4:	fe144703          	lbu	a4,-31(s0)
     4d8:	04200793          	li	a5,66
     4dc:	12f71263          	bne	a4,a5,600 <get_str_with_history+0x25c>
     4e0:	fe842783          	lw	a5,-24(s0)
     4e4:	12078263          	beqz	a5,608 <get_str_with_history+0x264>
     4e8:	0280006f          	j	510 <get_str_with_history+0x16c>
     4ec:	00800513          	li	a0,8
     4f0:	b39ff0ef          	jal	28 <print_char>
     4f4:	02000513          	li	a0,32
     4f8:	b31ff0ef          	jal	28 <print_char>
     4fc:	00800513          	li	a0,8
     500:	b29ff0ef          	jal	28 <print_char>
     504:	fec42783          	lw	a5,-20(s0)
     508:	fff78793          	addi	a5,a5,-1
     50c:	fef42623          	sw	a5,-20(s0)
     510:	fec42783          	lw	a5,-20(s0)
     514:	fcf04ce3          	bgtz	a5,4ec <get_str_with_history+0x148>
     518:	fec42783          	lw	a5,-20(s0)
     51c:	fdc42703          	lw	a4,-36(s0)
     520:	00f707b3          	add	a5,a4,a5
     524:	00078023          	sb	zero,0(a5)
     528:	fe042423          	sw	zero,-24(s0)
     52c:	0dc0006f          	j	608 <get_str_with_history+0x264>
     530:	fe344703          	lbu	a4,-29(s0)
     534:	00d00793          	li	a5,13
     538:	0cf70c63          	beq	a4,a5,610 <get_str_with_history+0x26c>
     53c:	fe344703          	lbu	a4,-29(s0)
     540:	00a00793          	li	a5,10
     544:	0cf70663          	beq	a4,a5,610 <get_str_with_history+0x26c>
     548:	fe344703          	lbu	a4,-29(s0)
     54c:	00800793          	li	a5,8
     550:	00f70863          	beq	a4,a5,560 <get_str_with_history+0x1bc>
     554:	fe344703          	lbu	a4,-29(s0)
     558:	07f00793          	li	a5,127
     55c:	04f71063          	bne	a4,a5,59c <get_str_with_history+0x1f8>
     560:	fec42783          	lw	a5,-20(s0)
     564:	02f05463          	blez	a5,58c <get_str_with_history+0x1e8>
     568:	fec42783          	lw	a5,-20(s0)
     56c:	fff78793          	addi	a5,a5,-1
     570:	fef42623          	sw	a5,-20(s0)
     574:	00800513          	li	a0,8
     578:	ab1ff0ef          	jal	28 <print_char>
     57c:	02000513          	li	a0,32
     580:	aa9ff0ef          	jal	28 <print_char>
     584:	00800513          	li	a0,8
     588:	aa1ff0ef          	jal	28 <print_char>
     58c:	fe842783          	lw	a5,-24(s0)
     590:	06078e63          	beqz	a5,60c <get_str_with_history+0x268>
     594:	fe042423          	sw	zero,-24(s0)
     598:	0740006f          	j	60c <get_str_with_history+0x268>
     59c:	fd842783          	lw	a5,-40(s0)
     5a0:	fff78793          	addi	a5,a5,-1
     5a4:	fec42703          	lw	a4,-20(s0)
     5a8:	e2f750e3          	bge	a4,a5,3c8 <get_str_with_history+0x24>
     5ac:	fe344703          	lbu	a4,-29(s0)
     5b0:	01f00793          	li	a5,31
     5b4:	e0e7fae3          	bgeu	a5,a4,3c8 <get_str_with_history+0x24>
     5b8:	fe344703          	lbu	a4,-29(s0)
     5bc:	07e00793          	li	a5,126
     5c0:	e0e7e4e3          	bltu	a5,a4,3c8 <get_str_with_history+0x24>
     5c4:	fec42783          	lw	a5,-20(s0)
     5c8:	00178713          	addi	a4,a5,1
     5cc:	fee42623          	sw	a4,-20(s0)
     5d0:	00078713          	mv	a4,a5
     5d4:	fdc42783          	lw	a5,-36(s0)
     5d8:	00e787b3          	add	a5,a5,a4
     5dc:	fe344703          	lbu	a4,-29(s0)
     5e0:	00e78023          	sb	a4,0(a5)
     5e4:	fe344783          	lbu	a5,-29(s0)
     5e8:	00078513          	mv	a0,a5
     5ec:	a3dff0ef          	jal	28 <print_char>
     5f0:	fe842783          	lw	a5,-24(s0)
     5f4:	dc078ae3          	beqz	a5,3c8 <get_str_with_history+0x24>
     5f8:	fe042423          	sw	zero,-24(s0)
     5fc:	dcdff06f          	j	3c8 <get_str_with_history+0x24>
     600:	00000013          	nop
     604:	dc5ff06f          	j	3c8 <get_str_with_history+0x24>
     608:	00000013          	nop
     60c:	dbdff06f          	j	3c8 <get_str_with_history+0x24>
     610:	fec42783          	lw	a5,-20(s0)
     614:	fdc42703          	lw	a4,-36(s0)
     618:	00f707b3          	add	a5,a4,a5
     61c:	00078023          	sb	zero,0(a5)
     620:	fec42783          	lw	a5,-20(s0)
     624:	00078513          	mv	a0,a5
     628:	02c12083          	lw	ra,44(sp)
     62c:	02812403          	lw	s0,40(sp)
     630:	03010113          	addi	sp,sp,48
     634:	00008067          	ret

00000638 <parse_command>:
     638:	fd010113          	addi	sp,sp,-48
     63c:	02112623          	sw	ra,44(sp)
     640:	02812423          	sw	s0,40(sp)
     644:	03010413          	addi	s0,sp,48
     648:	fca42e23          	sw	a0,-36(s0)
     64c:	fcb42c23          	sw	a1,-40(s0)
     650:	0100006f          	j	660 <parse_command+0x28>
     654:	fdc42783          	lw	a5,-36(s0)
     658:	00178793          	addi	a5,a5,1
     65c:	fcf42e23          	sw	a5,-36(s0)
     660:	fdc42783          	lw	a5,-36(s0)
     664:	0007c703          	lbu	a4,0(a5)
     668:	02000793          	li	a5,32
     66c:	fef704e3          	beq	a4,a5,654 <parse_command+0x1c>
     670:	fdc42783          	lw	a5,-36(s0)
     674:	0007c703          	lbu	a4,0(a5)
     678:	00900793          	li	a5,9
     67c:	fcf70ce3          	beq	a4,a5,654 <parse_command+0x1c>
     680:	fe042623          	sw	zero,-20(s0)
     684:	fe042623          	sw	zero,-20(s0)
     688:	02c0006f          	j	6b4 <parse_command+0x7c>
     68c:	fdc42703          	lw	a4,-36(s0)
     690:	00170793          	addi	a5,a4,1
     694:	fcf42e23          	sw	a5,-36(s0)
     698:	fec42783          	lw	a5,-20(s0)
     69c:	00178693          	addi	a3,a5,1
     6a0:	fed42623          	sw	a3,-20(s0)
     6a4:	00074703          	lbu	a4,0(a4)
     6a8:	fd842683          	lw	a3,-40(s0)
     6ac:	00f687b3          	add	a5,a3,a5
     6b0:	00e78023          	sb	a4,0(a5)
     6b4:	fdc42783          	lw	a5,-36(s0)
     6b8:	0007c783          	lbu	a5,0(a5)
     6bc:	02078863          	beqz	a5,6ec <parse_command+0xb4>
     6c0:	fdc42783          	lw	a5,-36(s0)
     6c4:	0007c703          	lbu	a4,0(a5)
     6c8:	02000793          	li	a5,32
     6cc:	02f70063          	beq	a4,a5,6ec <parse_command+0xb4>
     6d0:	fdc42783          	lw	a5,-36(s0)
     6d4:	0007c703          	lbu	a4,0(a5)
     6d8:	00900793          	li	a5,9
     6dc:	00f70863          	beq	a4,a5,6ec <parse_command+0xb4>
     6e0:	fec42703          	lw	a4,-20(s0)
     6e4:	00e00793          	li	a5,14
     6e8:	fae7d2e3          	bge	a5,a4,68c <parse_command+0x54>
     6ec:	fd842703          	lw	a4,-40(s0)
     6f0:	fec42783          	lw	a5,-20(s0)
     6f4:	00f707b3          	add	a5,a4,a5
     6f8:	00078023          	sb	zero,0(a5)
     6fc:	0100006f          	j	70c <parse_command+0xd4>
     700:	fdc42783          	lw	a5,-36(s0)
     704:	00178793          	addi	a5,a5,1
     708:	fcf42e23          	sw	a5,-36(s0)
     70c:	fdc42783          	lw	a5,-36(s0)
     710:	0007c703          	lbu	a4,0(a5)
     714:	02000793          	li	a5,32
     718:	fef704e3          	beq	a4,a5,700 <parse_command+0xc8>
     71c:	fdc42783          	lw	a5,-36(s0)
     720:	0007c703          	lbu	a4,0(a5)
     724:	00900793          	li	a5,9
     728:	fcf70ce3          	beq	a4,a5,700 <parse_command+0xc8>
     72c:	fe042623          	sw	zero,-20(s0)
     730:	02c0006f          	j	75c <parse_command+0x124>
     734:	fdc42703          	lw	a4,-36(s0)
     738:	00170793          	addi	a5,a4,1
     73c:	fcf42e23          	sw	a5,-36(s0)
     740:	fec42783          	lw	a5,-20(s0)
     744:	00178693          	addi	a3,a5,1
     748:	fed42623          	sw	a3,-20(s0)
     74c:	00074703          	lbu	a4,0(a4)
     750:	fd842683          	lw	a3,-40(s0)
     754:	00f687b3          	add	a5,a3,a5
     758:	00e78823          	sb	a4,16(a5)
     75c:	fdc42783          	lw	a5,-36(s0)
     760:	0007c783          	lbu	a5,0(a5)
     764:	02078863          	beqz	a5,794 <parse_command+0x15c>
     768:	fdc42783          	lw	a5,-36(s0)
     76c:	0007c703          	lbu	a4,0(a5)
     770:	02000793          	li	a5,32
     774:	02f70063          	beq	a4,a5,794 <parse_command+0x15c>
     778:	fdc42783          	lw	a5,-36(s0)
     77c:	0007c703          	lbu	a4,0(a5)
     780:	00900793          	li	a5,9
     784:	00f70863          	beq	a4,a5,794 <parse_command+0x15c>
     788:	fec42703          	lw	a4,-20(s0)
     78c:	00e00793          	li	a5,14
     790:	fae7d2e3          	bge	a5,a4,734 <parse_command+0xfc>
     794:	fd842703          	lw	a4,-40(s0)
     798:	fec42783          	lw	a5,-20(s0)
     79c:	00f707b3          	add	a5,a4,a5
     7a0:	00078823          	sb	zero,16(a5)
     7a4:	0100006f          	j	7b4 <parse_command+0x17c>
     7a8:	fdc42783          	lw	a5,-36(s0)
     7ac:	00178793          	addi	a5,a5,1
     7b0:	fcf42e23          	sw	a5,-36(s0)
     7b4:	fdc42783          	lw	a5,-36(s0)
     7b8:	0007c703          	lbu	a4,0(a5)
     7bc:	02000793          	li	a5,32
     7c0:	fef704e3          	beq	a4,a5,7a8 <parse_command+0x170>
     7c4:	fdc42783          	lw	a5,-36(s0)
     7c8:	0007c703          	lbu	a4,0(a5)
     7cc:	00900793          	li	a5,9
     7d0:	fcf70ce3          	beq	a4,a5,7a8 <parse_command+0x170>
     7d4:	fe042623          	sw	zero,-20(s0)
     7d8:	02c0006f          	j	804 <parse_command+0x1cc>
     7dc:	fdc42703          	lw	a4,-36(s0)
     7e0:	00170793          	addi	a5,a4,1
     7e4:	fcf42e23          	sw	a5,-36(s0)
     7e8:	fec42783          	lw	a5,-20(s0)
     7ec:	00178693          	addi	a3,a5,1
     7f0:	fed42623          	sw	a3,-20(s0)
     7f4:	00074703          	lbu	a4,0(a4)
     7f8:	fd842683          	lw	a3,-40(s0)
     7fc:	00f687b3          	add	a5,a3,a5
     800:	02e78023          	sb	a4,32(a5)
     804:	fdc42783          	lw	a5,-36(s0)
     808:	0007c783          	lbu	a5,0(a5)
     80c:	02078863          	beqz	a5,83c <parse_command+0x204>
     810:	fdc42783          	lw	a5,-36(s0)
     814:	0007c703          	lbu	a4,0(a5)
     818:	02000793          	li	a5,32
     81c:	02f70063          	beq	a4,a5,83c <parse_command+0x204>
     820:	fdc42783          	lw	a5,-36(s0)
     824:	0007c703          	lbu	a4,0(a5)
     828:	00900793          	li	a5,9
     82c:	00f70863          	beq	a4,a5,83c <parse_command+0x204>
     830:	fec42703          	lw	a4,-20(s0)
     834:	00e00793          	li	a5,14
     838:	fae7d2e3          	bge	a5,a4,7dc <parse_command+0x1a4>
     83c:	fd842703          	lw	a4,-40(s0)
     840:	fec42783          	lw	a5,-20(s0)
     844:	00f707b3          	add	a5,a4,a5
     848:	02078023          	sb	zero,32(a5)
     84c:	0100006f          	j	85c <parse_command+0x224>
     850:	fdc42783          	lw	a5,-36(s0)
     854:	00178793          	addi	a5,a5,1
     858:	fcf42e23          	sw	a5,-36(s0)
     85c:	fdc42783          	lw	a5,-36(s0)
     860:	0007c703          	lbu	a4,0(a5)
     864:	02000793          	li	a5,32
     868:	fef704e3          	beq	a4,a5,850 <parse_command+0x218>
     86c:	fdc42783          	lw	a5,-36(s0)
     870:	0007c703          	lbu	a4,0(a5)
     874:	00900793          	li	a5,9
     878:	fcf70ce3          	beq	a4,a5,850 <parse_command+0x218>
     87c:	fe042623          	sw	zero,-20(s0)
     880:	02c0006f          	j	8ac <parse_command+0x274>
     884:	fdc42703          	lw	a4,-36(s0)
     888:	00170793          	addi	a5,a4,1
     88c:	fcf42e23          	sw	a5,-36(s0)
     890:	fec42783          	lw	a5,-20(s0)
     894:	00178693          	addi	a3,a5,1
     898:	fed42623          	sw	a3,-20(s0)
     89c:	00074703          	lbu	a4,0(a4)
     8a0:	fd842683          	lw	a3,-40(s0)
     8a4:	00f687b3          	add	a5,a3,a5
     8a8:	02e78823          	sb	a4,48(a5)
     8ac:	fdc42783          	lw	a5,-36(s0)
     8b0:	0007c783          	lbu	a5,0(a5)
     8b4:	02078863          	beqz	a5,8e4 <parse_command+0x2ac>
     8b8:	fdc42783          	lw	a5,-36(s0)
     8bc:	0007c703          	lbu	a4,0(a5)
     8c0:	02000793          	li	a5,32
     8c4:	02f70063          	beq	a4,a5,8e4 <parse_command+0x2ac>
     8c8:	fdc42783          	lw	a5,-36(s0)
     8cc:	0007c703          	lbu	a4,0(a5)
     8d0:	00900793          	li	a5,9
     8d4:	00f70863          	beq	a4,a5,8e4 <parse_command+0x2ac>
     8d8:	fec42703          	lw	a4,-20(s0)
     8dc:	00e00793          	li	a5,14
     8e0:	fae7d2e3          	bge	a5,a4,884 <parse_command+0x24c>
     8e4:	fd842703          	lw	a4,-40(s0)
     8e8:	fec42783          	lw	a5,-20(s0)
     8ec:	00f707b3          	add	a5,a4,a5
     8f0:	02078823          	sb	zero,48(a5)
     8f4:	00000793          	li	a5,0
     8f8:	00078513          	mv	a0,a5
     8fc:	02c12083          	lw	ra,44(sp)
     900:	02812403          	lw	s0,40(sp)
     904:	03010113          	addi	sp,sp,48
     908:	00008067          	ret

0000090c <parse_hex>:
     90c:	fd010113          	addi	sp,sp,-48
     910:	02112623          	sw	ra,44(sp)
     914:	02812423          	sw	s0,40(sp)
     918:	03010413          	addi	s0,sp,48
     91c:	fca42e23          	sw	a0,-36(s0)
     920:	fcb42c23          	sw	a1,-40(s0)
     924:	fdc42783          	lw	a5,-36(s0)
     928:	00078663          	beqz	a5,934 <parse_hex+0x28>
     92c:	fd842783          	lw	a5,-40(s0)
     930:	00079663          	bnez	a5,93c <parse_hex+0x30>
     934:	fff00793          	li	a5,-1
     938:	1540006f          	j	a8c <parse_hex+0x180>
     93c:	fd842783          	lw	a5,-40(s0)
     940:	0007a023          	sw	zero,0(a5)
     944:	fdc42783          	lw	a5,-36(s0)
     948:	0007c703          	lbu	a4,0(a5)
     94c:	03000793          	li	a5,48
     950:	02f71c63          	bne	a4,a5,988 <parse_hex+0x7c>
     954:	fdc42783          	lw	a5,-36(s0)
     958:	00178793          	addi	a5,a5,1
     95c:	0007c703          	lbu	a4,0(a5)
     960:	07800793          	li	a5,120
     964:	00f70c63          	beq	a4,a5,97c <parse_hex+0x70>
     968:	fdc42783          	lw	a5,-36(s0)
     96c:	00178793          	addi	a5,a5,1
     970:	0007c703          	lbu	a4,0(a5)
     974:	05800793          	li	a5,88
     978:	00f71863          	bne	a4,a5,988 <parse_hex+0x7c>
     97c:	fdc42783          	lw	a5,-36(s0)
     980:	00278793          	addi	a5,a5,2
     984:	fcf42e23          	sw	a5,-36(s0)
     988:	fe042623          	sw	zero,-20(s0)
     98c:	0e00006f          	j	a6c <parse_hex+0x160>
     990:	fdc42783          	lw	a5,-36(s0)
     994:	00178713          	addi	a4,a5,1
     998:	fce42e23          	sw	a4,-36(s0)
     99c:	0007c783          	lbu	a5,0(a5)
     9a0:	fef405a3          	sb	a5,-21(s0)
     9a4:	feb44703          	lbu	a4,-21(s0)
     9a8:	02f00793          	li	a5,47
     9ac:	02e7fe63          	bgeu	a5,a4,9e8 <parse_hex+0xdc>
     9b0:	feb44703          	lbu	a4,-21(s0)
     9b4:	03900793          	li	a5,57
     9b8:	02e7e863          	bltu	a5,a4,9e8 <parse_hex+0xdc>
     9bc:	fd842783          	lw	a5,-40(s0)
     9c0:	0007a783          	lw	a5,0(a5)
     9c4:	00479713          	slli	a4,a5,0x4
     9c8:	feb44783          	lbu	a5,-21(s0)
     9cc:	00f707b3          	add	a5,a4,a5
     9d0:	fd078713          	addi	a4,a5,-48
     9d4:	fd842783          	lw	a5,-40(s0)
     9d8:	00e7a023          	sw	a4,0(a5)
     9dc:	00100793          	li	a5,1
     9e0:	fef42623          	sw	a5,-20(s0)
     9e4:	0880006f          	j	a6c <parse_hex+0x160>
     9e8:	feb44703          	lbu	a4,-21(s0)
     9ec:	06000793          	li	a5,96
     9f0:	02e7fe63          	bgeu	a5,a4,a2c <parse_hex+0x120>
     9f4:	feb44703          	lbu	a4,-21(s0)
     9f8:	06600793          	li	a5,102
     9fc:	02e7e863          	bltu	a5,a4,a2c <parse_hex+0x120>
     a00:	fd842783          	lw	a5,-40(s0)
     a04:	0007a783          	lw	a5,0(a5)
     a08:	00479713          	slli	a4,a5,0x4
     a0c:	feb44783          	lbu	a5,-21(s0)
     a10:	00f707b3          	add	a5,a4,a5
     a14:	fa978713          	addi	a4,a5,-87
     a18:	fd842783          	lw	a5,-40(s0)
     a1c:	00e7a023          	sw	a4,0(a5)
     a20:	00100793          	li	a5,1
     a24:	fef42623          	sw	a5,-20(s0)
     a28:	0440006f          	j	a6c <parse_hex+0x160>
     a2c:	feb44703          	lbu	a4,-21(s0)
     a30:	04000793          	li	a5,64
     a34:	04e7f263          	bgeu	a5,a4,a78 <parse_hex+0x16c>
     a38:	feb44703          	lbu	a4,-21(s0)
     a3c:	04600793          	li	a5,70
     a40:	02e7ec63          	bltu	a5,a4,a78 <parse_hex+0x16c>
     a44:	fd842783          	lw	a5,-40(s0)
     a48:	0007a783          	lw	a5,0(a5)
     a4c:	00479713          	slli	a4,a5,0x4
     a50:	feb44783          	lbu	a5,-21(s0)
     a54:	00f707b3          	add	a5,a4,a5
     a58:	fc978713          	addi	a4,a5,-55
     a5c:	fd842783          	lw	a5,-40(s0)
     a60:	00e7a023          	sw	a4,0(a5)
     a64:	00100793          	li	a5,1
     a68:	fef42623          	sw	a5,-20(s0)
     a6c:	fdc42783          	lw	a5,-36(s0)
     a70:	0007c783          	lbu	a5,0(a5)
     a74:	f0079ee3          	bnez	a5,990 <parse_hex+0x84>
     a78:	fec42783          	lw	a5,-20(s0)
     a7c:	00078663          	beqz	a5,a88 <parse_hex+0x17c>
     a80:	00000793          	li	a5,0
     a84:	0080006f          	j	a8c <parse_hex+0x180>
     a88:	fff00793          	li	a5,-1
     a8c:	00078513          	mv	a0,a5
     a90:	02c12083          	lw	ra,44(sp)
     a94:	02812403          	lw	s0,40(sp)
     a98:	03010113          	addi	sp,sp,48
     a9c:	00008067          	ret

00000aa0 <handle_gpio_command>:
     aa0:	fd010113          	addi	sp,sp,-48
     aa4:	02112623          	sw	ra,44(sp)
     aa8:	02812423          	sw	s0,40(sp)
     aac:	03010413          	addi	s0,sp,48
     ab0:	fca42e23          	sw	a0,-36(s0)
     ab4:	fdc42783          	lw	a5,-36(s0)
     ab8:	01078713          	addi	a4,a5,16
     abc:	100007b7          	lui	a5,0x10000
     ac0:	01478593          	addi	a1,a5,20 # 10000014 <STACK_TOP+0xfff8014>
     ac4:	00070513          	mv	a0,a4
     ac8:	eccff0ef          	jal	194 <strcmp>
     acc:	00050793          	mv	a5,a0
     ad0:	02079a63          	bnez	a5,b04 <handle_gpio_command+0x64>
     ad4:	e60ff0ef          	jal	134 <gpio_read_in>
     ad8:	fea42623          	sw	a0,-20(s0)
     adc:	100007b7          	lui	a5,0x10000
     ae0:	01878513          	addi	a0,a5,24 # 10000018 <STACK_TOP+0xfff8018>
     ae4:	d7cff0ef          	jal	60 <print_str>
     ae8:	00800593          	li	a1,8
     aec:	fec42503          	lw	a0,-20(s0)
     af0:	dc4ff0ef          	jal	b4 <print_hex>
     af4:	100007b7          	lui	a5,0x10000
     af8:	02c78513          	addi	a0,a5,44 # 1000002c <STACK_TOP+0xfff802c>
     afc:	d64ff0ef          	jal	60 <print_str>
     b00:	0b40006f          	j	bb4 <handle_gpio_command+0x114>
     b04:	fdc42783          	lw	a5,-36(s0)
     b08:	01078713          	addi	a4,a5,16
     b0c:	100007b7          	lui	a5,0x10000
     b10:	03078593          	addi	a1,a5,48 # 10000030 <STACK_TOP+0xfff8030>
     b14:	00070513          	mv	a0,a4
     b18:	e7cff0ef          	jal	194 <strcmp>
     b1c:	00050793          	mv	a5,a0
     b20:	08079463          	bnez	a5,ba8 <handle_gpio_command+0x108>
     b24:	fdc42783          	lw	a5,-36(s0)
     b28:	0207c783          	lbu	a5,32(a5)
     b2c:	00079a63          	bnez	a5,b40 <handle_gpio_command+0xa0>
     b30:	100007b7          	lui	a5,0x10000
     b34:	03478513          	addi	a0,a5,52 # 10000034 <STACK_TOP+0xfff8034>
     b38:	d28ff0ef          	jal	60 <print_str>
     b3c:	0780006f          	j	bb4 <handle_gpio_command+0x114>
     b40:	fdc42783          	lw	a5,-36(s0)
     b44:	02078793          	addi	a5,a5,32
     b48:	fe840713          	addi	a4,s0,-24
     b4c:	00070593          	mv	a1,a4
     b50:	00078513          	mv	a0,a5
     b54:	db9ff0ef          	jal	90c <parse_hex>
     b58:	00050793          	mv	a5,a0
     b5c:	00078a63          	beqz	a5,b70 <handle_gpio_command+0xd0>
     b60:	100007b7          	lui	a5,0x10000
     b64:	07078513          	addi	a0,a5,112 # 10000070 <STACK_TOP+0xfff8070>
     b68:	cf8ff0ef          	jal	60 <print_str>
     b6c:	0480006f          	j	bb4 <handle_gpio_command+0x114>
     b70:	fe842783          	lw	a5,-24(s0)
     b74:	00078513          	mv	a0,a5
     b78:	de8ff0ef          	jal	160 <gpio_write_out>
     b7c:	100007b7          	lui	a5,0x10000
     b80:	0b078513          	addi	a0,a5,176 # 100000b0 <STACK_TOP+0xfff80b0>
     b84:	cdcff0ef          	jal	60 <print_str>
     b88:	fe842783          	lw	a5,-24(s0)
     b8c:	00800593          	li	a1,8
     b90:	00078513          	mv	a0,a5
     b94:	d20ff0ef          	jal	b4 <print_hex>
     b98:	100007b7          	lui	a5,0x10000
     b9c:	0c878513          	addi	a0,a5,200 # 100000c8 <STACK_TOP+0xfff80c8>
     ba0:	cc0ff0ef          	jal	60 <print_str>
     ba4:	0100006f          	j	bb4 <handle_gpio_command+0x114>
     ba8:	100007b7          	lui	a5,0x10000
     bac:	0e478513          	addi	a0,a5,228 # 100000e4 <STACK_TOP+0xfff80e4>
     bb0:	cb0ff0ef          	jal	60 <print_str>
     bb4:	02c12083          	lw	ra,44(sp)
     bb8:	02812403          	lw	s0,40(sp)
     bbc:	03010113          	addi	sp,sp,48
     bc0:	00008067          	ret

00000bc4 <handle_mem_command>:
     bc4:	fb010113          	addi	sp,sp,-80
     bc8:	04112623          	sw	ra,76(sp)
     bcc:	04812423          	sw	s0,72(sp)
     bd0:	05010413          	addi	s0,sp,80
     bd4:	faa42e23          	sw	a0,-68(s0)
     bd8:	fbc42783          	lw	a5,-68(s0)
     bdc:	01078713          	addi	a4,a5,16
     be0:	100007b7          	lui	a5,0x10000
     be4:	12078593          	addi	a1,a5,288 # 10000120 <STACK_TOP+0xfff8120>
     be8:	00070513          	mv	a0,a4
     bec:	da8ff0ef          	jal	194 <strcmp>
     bf0:	00050793          	mv	a5,a0
     bf4:	02078263          	beqz	a5,c18 <handle_mem_command+0x54>
     bf8:	fbc42783          	lw	a5,-68(s0)
     bfc:	01078713          	addi	a4,a5,16
     c00:	100007b7          	lui	a5,0x10000
     c04:	12878593          	addi	a1,a5,296 # 10000128 <STACK_TOP+0xfff8128>
     c08:	00070513          	mv	a0,a4
     c0c:	d88ff0ef          	jal	194 <strcmp>
     c10:	00050793          	mv	a5,a0
     c14:	08079463          	bnez	a5,c9c <handle_mem_command+0xd8>
     c18:	fbc42783          	lw	a5,-68(s0)
     c1c:	02078793          	addi	a5,a5,32
     c20:	fe040713          	addi	a4,s0,-32
     c24:	00070593          	mv	a1,a4
     c28:	00078513          	mv	a0,a5
     c2c:	ce1ff0ef          	jal	90c <parse_hex>
     c30:	00050793          	mv	a5,a0
     c34:	00078a63          	beqz	a5,c48 <handle_mem_command+0x84>
     c38:	100007b7          	lui	a5,0x10000
     c3c:	13078513          	addi	a0,a5,304 # 10000130 <STACK_TOP+0xfff8130>
     c40:	c20ff0ef          	jal	60 <print_str>
     c44:	4c80006f          	j	110c <handle_mem_command+0x548>
     c48:	fe042783          	lw	a5,-32(s0)
     c4c:	00078513          	mv	a0,a5
     c50:	e40ff0ef          	jal	290 <read_mem>
     c54:	fea42223          	sw	a0,-28(s0)
     c58:	100007b7          	lui	a5,0x10000
     c5c:	16878513          	addi	a0,a5,360 # 10000168 <STACK_TOP+0xfff8168>
     c60:	c00ff0ef          	jal	60 <print_str>
     c64:	fe042783          	lw	a5,-32(s0)
     c68:	00800593          	li	a1,8
     c6c:	00078513          	mv	a0,a5
     c70:	c44ff0ef          	jal	b4 <print_hex>
     c74:	100007b7          	lui	a5,0x10000
     c78:	17478513          	addi	a0,a5,372 # 10000174 <STACK_TOP+0xfff8174>
     c7c:	be4ff0ef          	jal	60 <print_str>
     c80:	00800593          	li	a1,8
     c84:	fe442503          	lw	a0,-28(s0)
     c88:	c2cff0ef          	jal	b4 <print_hex>
     c8c:	100007b7          	lui	a5,0x10000
     c90:	02c78513          	addi	a0,a5,44 # 1000002c <STACK_TOP+0xfff802c>
     c94:	bccff0ef          	jal	60 <print_str>
     c98:	4740006f          	j	110c <handle_mem_command+0x548>
     c9c:	fbc42783          	lw	a5,-68(s0)
     ca0:	01078713          	addi	a4,a5,16
     ca4:	100007b7          	lui	a5,0x10000
     ca8:	17c78593          	addi	a1,a5,380 # 1000017c <STACK_TOP+0xfff817c>
     cac:	00070513          	mv	a0,a4
     cb0:	ce4ff0ef          	jal	194 <strcmp>
     cb4:	00050793          	mv	a5,a0
     cb8:	08079863          	bnez	a5,d48 <handle_mem_command+0x184>
     cbc:	fbc42783          	lw	a5,-68(s0)
     cc0:	02078793          	addi	a5,a5,32
     cc4:	fdc40713          	addi	a4,s0,-36
     cc8:	00070593          	mv	a1,a4
     ccc:	00078513          	mv	a0,a5
     cd0:	c3dff0ef          	jal	90c <parse_hex>
     cd4:	00050793          	mv	a5,a0
     cd8:	00078a63          	beqz	a5,cec <handle_mem_command+0x128>
     cdc:	100007b7          	lui	a5,0x10000
     ce0:	18478513          	addi	a0,a5,388 # 10000184 <STACK_TOP+0xfff8184>
     ce4:	b7cff0ef          	jal	60 <print_str>
     ce8:	4240006f          	j	110c <handle_mem_command+0x548>
     cec:	fdc42783          	lw	a5,-36(s0)
     cf0:	00078513          	mv	a0,a5
     cf4:	e08ff0ef          	jal	2fc <read_mem16>
     cf8:	00050793          	mv	a5,a0
     cfc:	fef41423          	sh	a5,-24(s0)
     d00:	100007b7          	lui	a5,0x10000
     d04:	1bc78513          	addi	a0,a5,444 # 100001bc <STACK_TOP+0xfff81bc>
     d08:	b58ff0ef          	jal	60 <print_str>
     d0c:	fdc42783          	lw	a5,-36(s0)
     d10:	00800593          	li	a1,8
     d14:	00078513          	mv	a0,a5
     d18:	b9cff0ef          	jal	b4 <print_hex>
     d1c:	100007b7          	lui	a5,0x10000
     d20:	17478513          	addi	a0,a5,372 # 10000174 <STACK_TOP+0xfff8174>
     d24:	b3cff0ef          	jal	60 <print_str>
     d28:	fe845783          	lhu	a5,-24(s0)
     d2c:	00400593          	li	a1,4
     d30:	00078513          	mv	a0,a5
     d34:	b80ff0ef          	jal	b4 <print_hex>
     d38:	100007b7          	lui	a5,0x10000
     d3c:	02c78513          	addi	a0,a5,44 # 1000002c <STACK_TOP+0xfff802c>
     d40:	b20ff0ef          	jal	60 <print_str>
     d44:	3c80006f          	j	110c <handle_mem_command+0x548>
     d48:	fbc42783          	lw	a5,-68(s0)
     d4c:	01078713          	addi	a4,a5,16
     d50:	100007b7          	lui	a5,0x10000
     d54:	1c878593          	addi	a1,a5,456 # 100001c8 <STACK_TOP+0xfff81c8>
     d58:	00070513          	mv	a0,a4
     d5c:	c38ff0ef          	jal	194 <strcmp>
     d60:	00050793          	mv	a5,a0
     d64:	08079863          	bnez	a5,df4 <handle_mem_command+0x230>
     d68:	fbc42783          	lw	a5,-68(s0)
     d6c:	02078793          	addi	a5,a5,32
     d70:	fd840713          	addi	a4,s0,-40
     d74:	00070593          	mv	a1,a4
     d78:	00078513          	mv	a0,a5
     d7c:	b91ff0ef          	jal	90c <parse_hex>
     d80:	00050793          	mv	a5,a0
     d84:	00078a63          	beqz	a5,d98 <handle_mem_command+0x1d4>
     d88:	100007b7          	lui	a5,0x10000
     d8c:	1d078513          	addi	a0,a5,464 # 100001d0 <STACK_TOP+0xfff81d0>
     d90:	ad0ff0ef          	jal	60 <print_str>
     d94:	3780006f          	j	110c <handle_mem_command+0x548>
     d98:	fd842783          	lw	a5,-40(s0)
     d9c:	00078513          	mv	a0,a5
     da0:	dd0ff0ef          	jal	370 <read_mem8>
     da4:	00050793          	mv	a5,a0
     da8:	fef405a3          	sb	a5,-21(s0)
     dac:	100007b7          	lui	a5,0x10000
     db0:	20478513          	addi	a0,a5,516 # 10000204 <STACK_TOP+0xfff8204>
     db4:	aacff0ef          	jal	60 <print_str>
     db8:	fd842783          	lw	a5,-40(s0)
     dbc:	00800593          	li	a1,8
     dc0:	00078513          	mv	a0,a5
     dc4:	af0ff0ef          	jal	b4 <print_hex>
     dc8:	100007b7          	lui	a5,0x10000
     dcc:	17478513          	addi	a0,a5,372 # 10000174 <STACK_TOP+0xfff8174>
     dd0:	a90ff0ef          	jal	60 <print_str>
     dd4:	feb44783          	lbu	a5,-21(s0)
     dd8:	00200593          	li	a1,2
     ddc:	00078513          	mv	a0,a5
     de0:	ad4ff0ef          	jal	b4 <print_hex>
     de4:	100007b7          	lui	a5,0x10000
     de8:	02c78513          	addi	a0,a5,44 # 1000002c <STACK_TOP+0xfff802c>
     dec:	a74ff0ef          	jal	60 <print_str>
     df0:	31c0006f          	j	110c <handle_mem_command+0x548>
     df4:	fbc42783          	lw	a5,-68(s0)
     df8:	01078713          	addi	a4,a5,16
     dfc:	100007b7          	lui	a5,0x10000
     e00:	21078593          	addi	a1,a5,528 # 10000210 <STACK_TOP+0xfff8210>
     e04:	00070513          	mv	a0,a4
     e08:	b8cff0ef          	jal	194 <strcmp>
     e0c:	00050793          	mv	a5,a0
     e10:	02078263          	beqz	a5,e34 <handle_mem_command+0x270>
     e14:	fbc42783          	lw	a5,-68(s0)
     e18:	01078713          	addi	a4,a5,16
     e1c:	100007b7          	lui	a5,0x10000
     e20:	21878593          	addi	a1,a5,536 # 10000218 <STACK_TOP+0xfff8218>
     e24:	00070513          	mv	a0,a4
     e28:	b6cff0ef          	jal	194 <strcmp>
     e2c:	00050793          	mv	a5,a0
     e30:	0c079c63          	bnez	a5,f08 <handle_mem_command+0x344>
     e34:	fbc42783          	lw	a5,-68(s0)
     e38:	0207c783          	lbu	a5,32(a5)
     e3c:	00078863          	beqz	a5,e4c <handle_mem_command+0x288>
     e40:	fbc42783          	lw	a5,-68(s0)
     e44:	0307c783          	lbu	a5,48(a5)
     e48:	00079a63          	bnez	a5,e5c <handle_mem_command+0x298>
     e4c:	100007b7          	lui	a5,0x10000
     e50:	22078513          	addi	a0,a5,544 # 10000220 <STACK_TOP+0xfff8220>
     e54:	a0cff0ef          	jal	60 <print_str>
     e58:	2b40006f          	j	110c <handle_mem_command+0x548>
     e5c:	fbc42783          	lw	a5,-68(s0)
     e60:	02078793          	addi	a5,a5,32
     e64:	fd440713          	addi	a4,s0,-44
     e68:	00070593          	mv	a1,a4
     e6c:	00078513          	mv	a0,a5
     e70:	a9dff0ef          	jal	90c <parse_hex>
     e74:	00050793          	mv	a5,a0
     e78:	02079263          	bnez	a5,e9c <handle_mem_command+0x2d8>
     e7c:	fbc42783          	lw	a5,-68(s0)
     e80:	03078793          	addi	a5,a5,48
     e84:	fd040713          	addi	a4,s0,-48
     e88:	00070593          	mv	a1,a4
     e8c:	00078513          	mv	a0,a5
     e90:	a7dff0ef          	jal	90c <parse_hex>
     e94:	00050793          	mv	a5,a0
     e98:	00078a63          	beqz	a5,eac <handle_mem_command+0x2e8>
     e9c:	100007b7          	lui	a5,0x10000
     ea0:	26478513          	addi	a0,a5,612 # 10000264 <STACK_TOP+0xfff8264>
     ea4:	9bcff0ef          	jal	60 <print_str>
     ea8:	2640006f          	j	110c <handle_mem_command+0x548>
     eac:	fd442783          	lw	a5,-44(s0)
     eb0:	fd042703          	lw	a4,-48(s0)
     eb4:	00070593          	mv	a1,a4
     eb8:	00078513          	mv	a0,a5
     ebc:	b9cff0ef          	jal	258 <write_mem>
     ec0:	100007b7          	lui	a5,0x10000
     ec4:	16878513          	addi	a0,a5,360 # 10000168 <STACK_TOP+0xfff8168>
     ec8:	998ff0ef          	jal	60 <print_str>
     ecc:	fd442783          	lw	a5,-44(s0)
     ed0:	00800593          	li	a1,8
     ed4:	00078513          	mv	a0,a5
     ed8:	9dcff0ef          	jal	b4 <print_hex>
     edc:	100007b7          	lui	a5,0x10000
     ee0:	2b478513          	addi	a0,a5,692 # 100002b4 <STACK_TOP+0xfff82b4>
     ee4:	97cff0ef          	jal	60 <print_str>
     ee8:	fd042783          	lw	a5,-48(s0)
     eec:	00800593          	li	a1,8
     ef0:	00078513          	mv	a0,a5
     ef4:	9c0ff0ef          	jal	b4 <print_hex>
     ef8:	100007b7          	lui	a5,0x10000
     efc:	2bc78513          	addi	a0,a5,700 # 100002bc <STACK_TOP+0xfff82bc>
     f00:	960ff0ef          	jal	60 <print_str>
     f04:	2080006f          	j	110c <handle_mem_command+0x548>
     f08:	fbc42783          	lw	a5,-68(s0)
     f0c:	01078713          	addi	a4,a5,16
     f10:	100007b7          	lui	a5,0x10000
     f14:	2d878593          	addi	a1,a5,728 # 100002d8 <STACK_TOP+0xfff82d8>
     f18:	00070513          	mv	a0,a4
     f1c:	a78ff0ef          	jal	194 <strcmp>
     f20:	00050793          	mv	a5,a0
     f24:	0e079063          	bnez	a5,1004 <handle_mem_command+0x440>
     f28:	fbc42783          	lw	a5,-68(s0)
     f2c:	0207c783          	lbu	a5,32(a5)
     f30:	00078863          	beqz	a5,f40 <handle_mem_command+0x37c>
     f34:	fbc42783          	lw	a5,-68(s0)
     f38:	0307c783          	lbu	a5,48(a5)
     f3c:	00079a63          	bnez	a5,f50 <handle_mem_command+0x38c>
     f40:	100007b7          	lui	a5,0x10000
     f44:	2e078513          	addi	a0,a5,736 # 100002e0 <STACK_TOP+0xfff82e0>
     f48:	918ff0ef          	jal	60 <print_str>
     f4c:	1c00006f          	j	110c <handle_mem_command+0x548>
     f50:	fbc42783          	lw	a5,-68(s0)
     f54:	02078793          	addi	a5,a5,32
     f58:	fcc40713          	addi	a4,s0,-52
     f5c:	00070593          	mv	a1,a4
     f60:	00078513          	mv	a0,a5
     f64:	9a9ff0ef          	jal	90c <parse_hex>
     f68:	00050793          	mv	a5,a0
     f6c:	02079263          	bnez	a5,f90 <handle_mem_command+0x3cc>
     f70:	fbc42783          	lw	a5,-68(s0)
     f74:	03078793          	addi	a5,a5,48
     f78:	fc840713          	addi	a4,s0,-56
     f7c:	00070593          	mv	a1,a4
     f80:	00078513          	mv	a0,a5
     f84:	989ff0ef          	jal	90c <parse_hex>
     f88:	00050793          	mv	a5,a0
     f8c:	00078a63          	beqz	a5,fa0 <handle_mem_command+0x3dc>
     f90:	100007b7          	lui	a5,0x10000
     f94:	32478513          	addi	a0,a5,804 # 10000324 <STACK_TOP+0xfff8324>
     f98:	8c8ff0ef          	jal	60 <print_str>
     f9c:	1700006f          	j	110c <handle_mem_command+0x548>
     fa0:	fc842783          	lw	a5,-56(s0)
     fa4:	fef41623          	sh	a5,-20(s0)
     fa8:	fcc42783          	lw	a5,-52(s0)
     fac:	fec45703          	lhu	a4,-20(s0)
     fb0:	00070593          	mv	a1,a4
     fb4:	00078513          	mv	a0,a5
     fb8:	b08ff0ef          	jal	2c0 <write_mem16>
     fbc:	100007b7          	lui	a5,0x10000
     fc0:	1bc78513          	addi	a0,a5,444 # 100001bc <STACK_TOP+0xfff81bc>
     fc4:	89cff0ef          	jal	60 <print_str>
     fc8:	fcc42783          	lw	a5,-52(s0)
     fcc:	00800593          	li	a1,8
     fd0:	00078513          	mv	a0,a5
     fd4:	8e0ff0ef          	jal	b4 <print_hex>
     fd8:	100007b7          	lui	a5,0x10000
     fdc:	2b478513          	addi	a0,a5,692 # 100002b4 <STACK_TOP+0xfff82b4>
     fe0:	880ff0ef          	jal	60 <print_str>
     fe4:	fec45783          	lhu	a5,-20(s0)
     fe8:	00400593          	li	a1,4
     fec:	00078513          	mv	a0,a5
     ff0:	8c4ff0ef          	jal	b4 <print_hex>
     ff4:	100007b7          	lui	a5,0x10000
     ff8:	37078513          	addi	a0,a5,880 # 10000370 <STACK_TOP+0xfff8370>
     ffc:	864ff0ef          	jal	60 <print_str>
    1000:	10c0006f          	j	110c <handle_mem_command+0x548>
    1004:	fbc42783          	lw	a5,-68(s0)
    1008:	01078713          	addi	a4,a5,16
    100c:	100007b7          	lui	a5,0x10000
    1010:	38c78593          	addi	a1,a5,908 # 1000038c <STACK_TOP+0xfff838c>
    1014:	00070513          	mv	a0,a4
    1018:	97cff0ef          	jal	194 <strcmp>
    101c:	00050793          	mv	a5,a0
    1020:	0e079063          	bnez	a5,1100 <handle_mem_command+0x53c>
    1024:	fbc42783          	lw	a5,-68(s0)
    1028:	0207c783          	lbu	a5,32(a5)
    102c:	00078863          	beqz	a5,103c <handle_mem_command+0x478>
    1030:	fbc42783          	lw	a5,-68(s0)
    1034:	0307c783          	lbu	a5,48(a5)
    1038:	00079a63          	bnez	a5,104c <handle_mem_command+0x488>
    103c:	100007b7          	lui	a5,0x10000
    1040:	39478513          	addi	a0,a5,916 # 10000394 <STACK_TOP+0xfff8394>
    1044:	81cff0ef          	jal	60 <print_str>
    1048:	0c40006f          	j	110c <handle_mem_command+0x548>
    104c:	fbc42783          	lw	a5,-68(s0)
    1050:	02078793          	addi	a5,a5,32
    1054:	fc440713          	addi	a4,s0,-60
    1058:	00070593          	mv	a1,a4
    105c:	00078513          	mv	a0,a5
    1060:	8adff0ef          	jal	90c <parse_hex>
    1064:	00050793          	mv	a5,a0
    1068:	02079263          	bnez	a5,108c <handle_mem_command+0x4c8>
    106c:	fbc42783          	lw	a5,-68(s0)
    1070:	03078793          	addi	a5,a5,48
    1074:	fc040713          	addi	a4,s0,-64
    1078:	00070593          	mv	a1,a4
    107c:	00078513          	mv	a0,a5
    1080:	88dff0ef          	jal	90c <parse_hex>
    1084:	00050793          	mv	a5,a0
    1088:	00078a63          	beqz	a5,109c <handle_mem_command+0x4d8>
    108c:	100007b7          	lui	a5,0x10000
    1090:	3d878513          	addi	a0,a5,984 # 100003d8 <STACK_TOP+0xfff83d8>
    1094:	fcdfe0ef          	jal	60 <print_str>
    1098:	0740006f          	j	110c <handle_mem_command+0x548>
    109c:	fc042783          	lw	a5,-64(s0)
    10a0:	fef407a3          	sb	a5,-17(s0)
    10a4:	fc442783          	lw	a5,-60(s0)
    10a8:	fef44703          	lbu	a4,-17(s0)
    10ac:	00070593          	mv	a1,a4
    10b0:	00078513          	mv	a0,a5
    10b4:	a80ff0ef          	jal	334 <write_mem8>
    10b8:	100007b7          	lui	a5,0x10000
    10bc:	20478513          	addi	a0,a5,516 # 10000204 <STACK_TOP+0xfff8204>
    10c0:	fa1fe0ef          	jal	60 <print_str>
    10c4:	fc442783          	lw	a5,-60(s0)
    10c8:	00800593          	li	a1,8
    10cc:	00078513          	mv	a0,a5
    10d0:	fe5fe0ef          	jal	b4 <print_hex>
    10d4:	100007b7          	lui	a5,0x10000
    10d8:	2b478513          	addi	a0,a5,692 # 100002b4 <STACK_TOP+0xfff82b4>
    10dc:	f85fe0ef          	jal	60 <print_str>
    10e0:	fef44783          	lbu	a5,-17(s0)
    10e4:	00200593          	li	a1,2
    10e8:	00078513          	mv	a0,a5
    10ec:	fc9fe0ef          	jal	b4 <print_hex>
    10f0:	100007b7          	lui	a5,0x10000
    10f4:	42478513          	addi	a0,a5,1060 # 10000424 <STACK_TOP+0xfff8424>
    10f8:	f69fe0ef          	jal	60 <print_str>
    10fc:	0100006f          	j	110c <handle_mem_command+0x548>
    1100:	100007b7          	lui	a5,0x10000
    1104:	43c78513          	addi	a0,a5,1084 # 1000043c <STACK_TOP+0xfff843c>
    1108:	f59fe0ef          	jal	60 <print_str>
    110c:	04c12083          	lw	ra,76(sp)
    1110:	04812403          	lw	s0,72(sp)
    1114:	05010113          	addi	sp,sp,80
    1118:	00008067          	ret

0000111c <dispatch_command>:
    111c:	fe010113          	addi	sp,sp,-32
    1120:	00112e23          	sw	ra,28(sp)
    1124:	00812c23          	sw	s0,24(sp)
    1128:	02010413          	addi	s0,sp,32
    112c:	fea42623          	sw	a0,-20(s0)
    1130:	fec42703          	lw	a4,-20(s0)
    1134:	100007b7          	lui	a5,0x10000
    1138:	49078593          	addi	a1,a5,1168 # 10000490 <STACK_TOP+0xfff8490>
    113c:	00070513          	mv	a0,a4
    1140:	854ff0ef          	jal	194 <strcmp>
    1144:	00050793          	mv	a5,a0
    1148:	00079863          	bnez	a5,1158 <dispatch_command+0x3c>
    114c:	fec42503          	lw	a0,-20(s0)
    1150:	951ff0ef          	jal	aa0 <handle_gpio_command>
    1154:	0640006f          	j	11b8 <dispatch_command+0x9c>
    1158:	fec42703          	lw	a4,-20(s0)
    115c:	100007b7          	lui	a5,0x10000
    1160:	49878593          	addi	a1,a5,1176 # 10000498 <STACK_TOP+0xfff8498>
    1164:	00070513          	mv	a0,a4
    1168:	82cff0ef          	jal	194 <strcmp>
    116c:	00050793          	mv	a5,a0
    1170:	00079863          	bnez	a5,1180 <dispatch_command+0x64>
    1174:	fec42503          	lw	a0,-20(s0)
    1178:	a4dff0ef          	jal	bc4 <handle_mem_command>
    117c:	03c0006f          	j	11b8 <dispatch_command+0x9c>
    1180:	fec42703          	lw	a4,-20(s0)
    1184:	100007b7          	lui	a5,0x10000
    1188:	49c78593          	addi	a1,a5,1180 # 1000049c <STACK_TOP+0xfff849c>
    118c:	00070513          	mv	a0,a4
    1190:	804ff0ef          	jal	194 <strcmp>
    1194:	00050793          	mv	a5,a0
    1198:	00079a63          	bnez	a5,11ac <dispatch_command+0x90>
    119c:	100007b7          	lui	a5,0x10000
    11a0:	4a478513          	addi	a0,a5,1188 # 100004a4 <STACK_TOP+0xfff84a4>
    11a4:	ebdfe0ef          	jal	60 <print_str>
    11a8:	0100006f          	j	11b8 <dispatch_command+0x9c>
    11ac:	100007b7          	lui	a5,0x10000
    11b0:	50c78513          	addi	a0,a5,1292 # 1000050c <STACK_TOP+0xfff850c>
    11b4:	eadfe0ef          	jal	60 <print_str>
    11b8:	00000013          	nop
    11bc:	01c12083          	lw	ra,28(sp)
    11c0:	01812403          	lw	s0,24(sp)
    11c4:	02010113          	addi	sp,sp,32
    11c8:	00008067          	ret

000011cc <command_handler>:
    11cc:	f8010113          	addi	sp,sp,-128
    11d0:	06112e23          	sw	ra,124(sp)
    11d4:	06812c23          	sw	s0,120(sp)
    11d8:	08010413          	addi	s0,sp,128
    11dc:	100007b7          	lui	a5,0x10000
    11e0:	53078513          	addi	a0,a5,1328 # 10000530 <STACK_TOP+0xfff8530>
    11e4:	e7dfe0ef          	jal	60 <print_str>
    11e8:	fc440713          	addi	a4,s0,-60
    11ec:	400007b7          	lui	a5,0x40000
    11f0:	00078613          	mv	a2,a5
    11f4:	02000593          	li	a1,32
    11f8:	00070513          	mv	a0,a4
    11fc:	9a8ff0ef          	jal	3a4 <get_str_with_history>
    1200:	fe042623          	sw	zero,-20(s0)
    1204:	fe042423          	sw	zero,-24(s0)
    1208:	04c0006f          	j	1254 <command_handler+0x88>
    120c:	fe842783          	lw	a5,-24(s0)
    1210:	ff078793          	addi	a5,a5,-16 # 3ffffff0 <STACK_TOP+0x3fff7ff0>
    1214:	008787b3          	add	a5,a5,s0
    1218:	fd47c703          	lbu	a4,-44(a5)
    121c:	02000793          	li	a5,32
    1220:	02f70463          	beq	a4,a5,1248 <command_handler+0x7c>
    1224:	fe842783          	lw	a5,-24(s0)
    1228:	ff078793          	addi	a5,a5,-16
    122c:	008787b3          	add	a5,a5,s0
    1230:	fd47c703          	lbu	a4,-44(a5)
    1234:	00900793          	li	a5,9
    1238:	00f70863          	beq	a4,a5,1248 <command_handler+0x7c>
    123c:	00100793          	li	a5,1
    1240:	fef42623          	sw	a5,-20(s0)
    1244:	0240006f          	j	1268 <command_handler+0x9c>
    1248:	fe842783          	lw	a5,-24(s0)
    124c:	00178793          	addi	a5,a5,1
    1250:	fef42423          	sw	a5,-24(s0)
    1254:	fe842783          	lw	a5,-24(s0)
    1258:	ff078793          	addi	a5,a5,-16
    125c:	008787b3          	add	a5,a5,s0
    1260:	fd47c783          	lbu	a5,-44(a5)
    1264:	fa0794e3          	bnez	a5,120c <command_handler+0x40>
    1268:	fec42783          	lw	a5,-20(s0)
    126c:	06078263          	beqz	a5,12d0 <command_handler+0x104>
    1270:	fe042223          	sw	zero,-28(s0)
    1274:	0480006f          	j	12bc <command_handler+0xf0>
    1278:	fe442783          	lw	a5,-28(s0)
    127c:	ff078793          	addi	a5,a5,-16
    1280:	008787b3          	add	a5,a5,s0
    1284:	fd47c703          	lbu	a4,-44(a5)
    1288:	400007b7          	lui	a5,0x40000
    128c:	00078693          	mv	a3,a5
    1290:	fe442783          	lw	a5,-28(s0)
    1294:	00f687b3          	add	a5,a3,a5
    1298:	00e78023          	sb	a4,0(a5) # 40000000 <last_cmd.0>
    129c:	fe442783          	lw	a5,-28(s0)
    12a0:	ff078793          	addi	a5,a5,-16
    12a4:	008787b3          	add	a5,a5,s0
    12a8:	fd47c783          	lbu	a5,-44(a5)
    12ac:	02078063          	beqz	a5,12cc <command_handler+0x100>
    12b0:	fe442783          	lw	a5,-28(s0)
    12b4:	00178793          	addi	a5,a5,1
    12b8:	fef42223          	sw	a5,-28(s0)
    12bc:	fe442703          	lw	a4,-28(s0)
    12c0:	01f00793          	li	a5,31
    12c4:	fae7fae3          	bgeu	a5,a4,1278 <command_handler+0xac>
    12c8:	0080006f          	j	12d0 <command_handler+0x104>
    12cc:	00000013          	nop
    12d0:	f8440713          	addi	a4,s0,-124
    12d4:	fc440793          	addi	a5,s0,-60
    12d8:	00070593          	mv	a1,a4
    12dc:	00078513          	mv	a0,a5
    12e0:	b58ff0ef          	jal	638 <parse_command>
    12e4:	f8440793          	addi	a5,s0,-124
    12e8:	00078513          	mv	a0,a5
    12ec:	e31ff0ef          	jal	111c <dispatch_command>
    12f0:	00000013          	nop
    12f4:	07c12083          	lw	ra,124(sp)
    12f8:	07812403          	lw	s0,120(sp)
    12fc:	08010113          	addi	sp,sp,128
    1300:	00008067          	ret

00001304 <main>:
    1304:	ff010113          	addi	sp,sp,-16
    1308:	00112623          	sw	ra,12(sp)
    130c:	00812423          	sw	s0,8(sp)
    1310:	01010413          	addi	s0,sp,16
    1314:	100007b7          	lui	a5,0x10000
    1318:	53478513          	addi	a0,a5,1332 # 10000534 <STACK_TOP+0xfff8534>
    131c:	d45fe0ef          	jal	60 <print_str>
    1320:	eadff0ef          	jal	11cc <command_handler>
    1324:	ffdff06f          	j	1320 <main+0x1c>

Disassembly of section .rodata:

10000000 <.rodata>:
10000000:	3130                	.insn	2, 0x3130
10000002:	3332                	.insn	2, 0x3332
10000004:	3534                	.insn	2, 0x3534
10000006:	3736                	.insn	2, 0x3736
10000008:	3938                	.insn	2, 0x3938
1000000a:	4241                	.insn	2, 0x4241
1000000c:	46454443          	.insn	4, 0x46454443
10000010:	0000                	.insn	2, 0x0000
10000012:	0000                	.insn	2, 0x0000
10000014:	6e69                	.insn	2, 0x6e69
10000016:	0000                	.insn	2, 0x0000
10000018:	0a0d                	.insn	2, 0x0a0d
1000001a:	4f495047          	.insn	4, 0x4f495047
1000001e:	4920                	.insn	2, 0x4920
10000020:	204e                	.insn	2, 0x204e
10000022:	6176                	.insn	2, 0x6176
10000024:	756c                	.insn	2, 0x756c
10000026:	3a65                	.insn	2, 0x3a65
10000028:	3020                	.insn	2, 0x3020
1000002a:	0078                	.insn	2, 0x0078
1000002c:	0a0d                	.insn	2, 0x0a0d
1000002e:	0000                	.insn	2, 0x0000
10000030:	0074756f          	jal	a0,10047836 <STACK_TOP+0x1003f836>
10000034:	0a0d                	.insn	2, 0x0a0d
10000036:	7245                	.insn	2, 0x7245
10000038:	6f72                	.insn	2, 0x6f72
1000003a:	3a72                	.insn	2, 0x3a72
1000003c:	6120                	.insn	2, 0x6120
1000003e:	6772                	.insn	2, 0x6772
10000040:	6d75                	.insn	2, 0x6d75
10000042:	6e65                	.insn	2, 0x6e65
10000044:	2074                	.insn	2, 0x2074
10000046:	696d                	.insn	2, 0x696d
10000048:	6e697373          	csrrci	t1,0x6e6,18
1000004c:	55202e67          	.insn	4, 0x55202e67
10000050:	65676173          	csrrsi	sp,hviprio1h,14
10000054:	203a                	.insn	2, 0x203a
10000056:	6f697067          	.insn	4, 0x6f697067
1000005a:	6f20                	.insn	2, 0x6f20
1000005c:	7475                	.insn	2, 0x7475
1000005e:	3c20                	.insn	2, 0x3c20
10000060:	6568                	.insn	2, 0x6568
10000062:	5f78                	.insn	2, 0x5f78
10000064:	6176                	.insn	2, 0x6176
10000066:	756c                	.insn	2, 0x756c
10000068:	3e65                	.insn	2, 0x3e65
1000006a:	0a0d                	.insn	2, 0x0a0d
1000006c:	0000                	.insn	2, 0x0000
1000006e:	0000                	.insn	2, 0x0000
10000070:	0a0d                	.insn	2, 0x0a0d
10000072:	7245                	.insn	2, 0x7245
10000074:	6f72                	.insn	2, 0x6f72
10000076:	3a72                	.insn	2, 0x3a72
10000078:	6920                	.insn	2, 0x6920
1000007a:	766e                	.insn	2, 0x766e
1000007c:	6c61                	.insn	2, 0x6c61
1000007e:	6469                	.insn	2, 0x6469
10000080:	6820                	.insn	2, 0x6820
10000082:	7865                	.insn	2, 0x7865
10000084:	6120                	.insn	2, 0x6120
10000086:	6772                	.insn	2, 0x6772
10000088:	6d75                	.insn	2, 0x6d75
1000008a:	6e65                	.insn	2, 0x6e65
1000008c:	2e74                	.insn	2, 0x2e74
1000008e:	5520                	.insn	2, 0x5520
10000090:	65676173          	csrrsi	sp,hviprio1h,14
10000094:	203a                	.insn	2, 0x203a
10000096:	6f697067          	.insn	4, 0x6f697067
1000009a:	6f20                	.insn	2, 0x6f20
1000009c:	7475                	.insn	2, 0x7475
1000009e:	3c20                	.insn	2, 0x3c20
100000a0:	6568                	.insn	2, 0x6568
100000a2:	5f78                	.insn	2, 0x5f78
100000a4:	6176                	.insn	2, 0x6176
100000a6:	756c                	.insn	2, 0x756c
100000a8:	3e65                	.insn	2, 0x3e65
100000aa:	0a0d                	.insn	2, 0x0a0d
100000ac:	0000                	.insn	2, 0x0000
100000ae:	0000                	.insn	2, 0x0000
100000b0:	0a0d                	.insn	2, 0x0a0d
100000b2:	20746553          	.insn	4, 0x20746553
100000b6:	4f495047          	.insn	4, 0x4f495047
100000ba:	4f20                	.insn	2, 0x4f20
100000bc:	5455                	.insn	2, 0x5455
100000be:	7420                	.insn	2, 0x7420
100000c0:	7830206f          	j	10003042 <STACK_TOP+0xfffb042>
100000c4:	0000                	.insn	2, 0x0000
100000c6:	0000                	.insn	2, 0x0000
100000c8:	0a0d                	.insn	2, 0x0a0d
100000ca:	4f495047          	.insn	4, 0x4f495047
100000ce:	6f20                	.insn	2, 0x6f20
100000d0:	7475                	.insn	2, 0x7475
100000d2:	7570                	.insn	2, 0x7570
100000d4:	2074                	.insn	2, 0x2074
100000d6:	7075                	.insn	2, 0x7075
100000d8:	6164                	.insn	2, 0x6164
100000da:	6574                	.insn	2, 0x6574
100000dc:	2164                	.insn	2, 0x2164
100000de:	0a0d                	.insn	2, 0x0a0d
100000e0:	0000                	.insn	2, 0x0000
100000e2:	0000                	.insn	2, 0x0000
100000e4:	0a0d                	.insn	2, 0x0a0d
100000e6:	7245                	.insn	2, 0x7245
100000e8:	6f72                	.insn	2, 0x6f72
100000ea:	3a72                	.insn	2, 0x3a72
100000ec:	7520                	.insn	2, 0x7520
100000ee:	6b6e                	.insn	2, 0x6b6e
100000f0:	6f6e                	.insn	2, 0x6f6e
100000f2:	73206e77          	.insn	4, 0x73206e77
100000f6:	6275                	.insn	2, 0x6275
100000f8:	2e646d63          	bltu	s0,t1,100003f2 <STACK_TOP+0xfff83f2>
100000fc:	5520                	.insn	2, 0x5520
100000fe:	65676173          	csrrsi	sp,hviprio1h,14
10000102:	203a                	.insn	2, 0x203a
10000104:	6f697067          	.insn	4, 0x6f697067
10000108:	3c20                	.insn	2, 0x3c20
1000010a:	6e69                	.insn	2, 0x6e69
1000010c:	6f7c                	.insn	2, 0x6f7c
1000010e:	7475                	.insn	2, 0x7475
10000110:	203e                	.insn	2, 0x203e
10000112:	683c                	.insn	2, 0x683c
10000114:	7865                	.insn	2, 0x7865
10000116:	765f 6c61 6575      	.insn	6, 0x65756c61765f
1000011c:	0d3e                	.insn	2, 0x0d3e
1000011e:	000a                	.insn	2, 0x000a
10000120:	6572                	.insn	2, 0x6572
10000122:	6461                	.insn	2, 0x6461
10000124:	0000                	.insn	2, 0x0000
10000126:	0000                	.insn	2, 0x0000
10000128:	6572                	.insn	2, 0x6572
1000012a:	6461                	.insn	2, 0x6461
1000012c:	00003233          	snez	tp,zero
10000130:	0a0d                	.insn	2, 0x0a0d
10000132:	7245                	.insn	2, 0x7245
10000134:	6f72                	.insn	2, 0x6f72
10000136:	3a72                	.insn	2, 0x3a72
10000138:	6920                	.insn	2, 0x6920
1000013a:	766e                	.insn	2, 0x766e
1000013c:	6c61                	.insn	2, 0x6c61
1000013e:	6469                	.insn	2, 0x6469
10000140:	6120                	.insn	2, 0x6120
10000142:	6464                	.insn	2, 0x6464
10000144:	6572                	.insn	2, 0x6572
10000146:	202e7373          	csrrci	t1,0x202,28
1000014a:	7355                	.insn	2, 0x7355
1000014c:	6761                	.insn	2, 0x6761
1000014e:	3a65                	.insn	2, 0x3a65
10000150:	6d20                	.insn	2, 0x6d20
10000152:	6d65                	.insn	2, 0x6d65
10000154:	7220                	.insn	2, 0x7220
10000156:	6165                	.insn	2, 0x6165
10000158:	5b64                	.insn	2, 0x5b64
1000015a:	205d3233          	.insn	4, 0x205d3233
1000015e:	613c                	.insn	2, 0x613c
10000160:	6464                	.insn	2, 0x6464
10000162:	3e72                	.insn	2, 0x3e72
10000164:	0a0d                	.insn	2, 0x0a0d
10000166:	0000                	.insn	2, 0x0000
10000168:	0a0d                	.insn	2, 0x0a0d
1000016a:	454d                	.insn	2, 0x454d
1000016c:	334d                	.insn	2, 0x334d
1000016e:	5b32                	.insn	2, 0x5b32
10000170:	7830                	.insn	2, 0x7830
10000172:	0000                	.insn	2, 0x0000
10000174:	205d                	.insn	2, 0x205d
10000176:	203d                	.insn	2, 0x203d
10000178:	7830                	.insn	2, 0x7830
1000017a:	0000                	.insn	2, 0x0000
1000017c:	6572                	.insn	2, 0x6572
1000017e:	6461                	.insn	2, 0x6461
10000180:	3631                	.insn	2, 0x3631
10000182:	0000                	.insn	2, 0x0000
10000184:	0a0d                	.insn	2, 0x0a0d
10000186:	7245                	.insn	2, 0x7245
10000188:	6f72                	.insn	2, 0x6f72
1000018a:	3a72                	.insn	2, 0x3a72
1000018c:	6920                	.insn	2, 0x6920
1000018e:	766e                	.insn	2, 0x766e
10000190:	6c61                	.insn	2, 0x6c61
10000192:	6469                	.insn	2, 0x6469
10000194:	6120                	.insn	2, 0x6120
10000196:	6464                	.insn	2, 0x6464
10000198:	6572                	.insn	2, 0x6572
1000019a:	202e7373          	csrrci	t1,0x202,28
1000019e:	7355                	.insn	2, 0x7355
100001a0:	6761                	.insn	2, 0x6761
100001a2:	3a65                	.insn	2, 0x3a65
100001a4:	6d20                	.insn	2, 0x6d20
100001a6:	6d65                	.insn	2, 0x6d65
100001a8:	7220                	.insn	2, 0x7220
100001aa:	6165                	.insn	2, 0x6165
100001ac:	3164                	.insn	2, 0x3164
100001ae:	2036                	.insn	2, 0x2036
100001b0:	613c                	.insn	2, 0x613c
100001b2:	6464                	.insn	2, 0x6464
100001b4:	3e72                	.insn	2, 0x3e72
100001b6:	0a0d                	.insn	2, 0x0a0d
100001b8:	0000                	.insn	2, 0x0000
100001ba:	0000                	.insn	2, 0x0000
100001bc:	0a0d                	.insn	2, 0x0a0d
100001be:	454d                	.insn	2, 0x454d
100001c0:	314d                	.insn	2, 0x314d
100001c2:	5b36                	.insn	2, 0x5b36
100001c4:	7830                	.insn	2, 0x7830
100001c6:	0000                	.insn	2, 0x0000
100001c8:	6572                	.insn	2, 0x6572
100001ca:	6461                	.insn	2, 0x6461
100001cc:	0038                	.insn	2, 0x0038
100001ce:	0000                	.insn	2, 0x0000
100001d0:	0a0d                	.insn	2, 0x0a0d
100001d2:	7245                	.insn	2, 0x7245
100001d4:	6f72                	.insn	2, 0x6f72
100001d6:	3a72                	.insn	2, 0x3a72
100001d8:	6920                	.insn	2, 0x6920
100001da:	766e                	.insn	2, 0x766e
100001dc:	6c61                	.insn	2, 0x6c61
100001de:	6469                	.insn	2, 0x6469
100001e0:	6120                	.insn	2, 0x6120
100001e2:	6464                	.insn	2, 0x6464
100001e4:	6572                	.insn	2, 0x6572
100001e6:	202e7373          	csrrci	t1,0x202,28
100001ea:	7355                	.insn	2, 0x7355
100001ec:	6761                	.insn	2, 0x6761
100001ee:	3a65                	.insn	2, 0x3a65
100001f0:	6d20                	.insn	2, 0x6d20
100001f2:	6d65                	.insn	2, 0x6d65
100001f4:	7220                	.insn	2, 0x7220
100001f6:	6165                	.insn	2, 0x6165
100001f8:	3864                	.insn	2, 0x3864
100001fa:	3c20                	.insn	2, 0x3c20
100001fc:	6461                	.insn	2, 0x6461
100001fe:	7264                	.insn	2, 0x7264
10000200:	0d3e                	.insn	2, 0x0d3e
10000202:	000a                	.insn	2, 0x000a
10000204:	0a0d                	.insn	2, 0x0a0d
10000206:	454d                	.insn	2, 0x454d
10000208:	384d                	.insn	2, 0x384d
1000020a:	0078305b          	.insn	4, 0x0078305b
1000020e:	0000                	.insn	2, 0x0000
10000210:	74697277          	.insn	4, 0x74697277
10000214:	0065                	.insn	2, 0x0065
10000216:	0000                	.insn	2, 0x0000
10000218:	74697277          	.insn	4, 0x74697277
1000021c:	3365                	.insn	2, 0x3365
1000021e:	0032                	.insn	2, 0x0032
10000220:	0a0d                	.insn	2, 0x0a0d
10000222:	7245                	.insn	2, 0x7245
10000224:	6f72                	.insn	2, 0x6f72
10000226:	3a72                	.insn	2, 0x3a72
10000228:	6920                	.insn	2, 0x6920
1000022a:	636e                	.insn	2, 0x636e
1000022c:	6c706d6f          	jal	s10,100070f2 <STACK_TOP+0xffff0f2>
10000230:	7465                	.insn	2, 0x7465
10000232:	2065                	.insn	2, 0x2065
10000234:	7261                	.insn	2, 0x7261
10000236:	202e7367          	.insn	4, 0x202e7367
1000023a:	7355                	.insn	2, 0x7355
1000023c:	6761                	.insn	2, 0x6761
1000023e:	3a65                	.insn	2, 0x3a65
10000240:	6d20                	.insn	2, 0x6d20
10000242:	6d65                	.insn	2, 0x6d65
10000244:	7720                	.insn	2, 0x7720
10000246:	6972                	.insn	2, 0x6972
10000248:	6574                	.insn	2, 0x6574
1000024a:	5d32335b          	.insn	4, 0x5d32335b
1000024e:	3c20                	.insn	2, 0x3c20
10000250:	6461                	.insn	2, 0x6461
10000252:	7264                	.insn	2, 0x7264
10000254:	203e                	.insn	2, 0x203e
10000256:	683c                	.insn	2, 0x683c
10000258:	7865                	.insn	2, 0x7865
1000025a:	765f 6c61 6575      	.insn	6, 0x65756c61765f
10000260:	0d3e                	.insn	2, 0x0d3e
10000262:	000a                	.insn	2, 0x000a
10000264:	0a0d                	.insn	2, 0x0a0d
10000266:	7245                	.insn	2, 0x7245
10000268:	6f72                	.insn	2, 0x6f72
1000026a:	3a72                	.insn	2, 0x3a72
1000026c:	6920                	.insn	2, 0x6920
1000026e:	766e                	.insn	2, 0x766e
10000270:	6c61                	.insn	2, 0x6c61
10000272:	6469                	.insn	2, 0x6469
10000274:	6120                	.insn	2, 0x6120
10000276:	6464                	.insn	2, 0x6464
10000278:	6572                	.insn	2, 0x6572
1000027a:	6f207373          	csrrci	t1,0x6f2,0
1000027e:	2072                	.insn	2, 0x2072
10000280:	6176                	.insn	2, 0x6176
10000282:	756c                	.insn	2, 0x756c
10000284:	2e65                	.insn	2, 0x2e65
10000286:	5520                	.insn	2, 0x5520
10000288:	65676173          	csrrsi	sp,hviprio1h,14
1000028c:	203a                	.insn	2, 0x203a
1000028e:	656d                	.insn	2, 0x656d
10000290:	206d                	.insn	2, 0x206d
10000292:	74697277          	.insn	4, 0x74697277
10000296:	5b65                	.insn	2, 0x5b65
10000298:	205d3233          	.insn	4, 0x205d3233
1000029c:	613c                	.insn	2, 0x613c
1000029e:	6464                	.insn	2, 0x6464
100002a0:	3e72                	.insn	2, 0x3e72
100002a2:	3c20                	.insn	2, 0x3c20
100002a4:	6568                	.insn	2, 0x6568
100002a6:	5f78                	.insn	2, 0x5f78
100002a8:	6176                	.insn	2, 0x6176
100002aa:	756c                	.insn	2, 0x756c
100002ac:	3e65                	.insn	2, 0x3e65
100002ae:	0a0d                	.insn	2, 0x0a0d
100002b0:	0000                	.insn	2, 0x0000
100002b2:	0000                	.insn	2, 0x0000
100002b4:	205d                	.insn	2, 0x205d
100002b6:	3d3c                	.insn	2, 0x3d3c
100002b8:	3020                	.insn	2, 0x3020
100002ba:	0078                	.insn	2, 0x0078
100002bc:	0a0d                	.insn	2, 0x0a0d
100002be:	654d                	.insn	2, 0x654d
100002c0:	6f6d                	.insn	2, 0x6f6d
100002c2:	7972                	.insn	2, 0x7972
100002c4:	7720                	.insn	2, 0x7720
100002c6:	6972                	.insn	2, 0x6972
100002c8:	6574                	.insn	2, 0x6574
100002ca:	64203233          	.insn	4, 0x64203233
100002ce:	21656e6f          	jal	t3,100564e4 <STACK_TOP+0x1004e4e4>
100002d2:	0a0d                	.insn	2, 0x0a0d
100002d4:	0000                	.insn	2, 0x0000
100002d6:	0000                	.insn	2, 0x0000
100002d8:	74697277          	.insn	4, 0x74697277
100002dc:	3165                	.insn	2, 0x3165
100002de:	0036                	.insn	2, 0x0036
100002e0:	0a0d                	.insn	2, 0x0a0d
100002e2:	7245                	.insn	2, 0x7245
100002e4:	6f72                	.insn	2, 0x6f72
100002e6:	3a72                	.insn	2, 0x3a72
100002e8:	6920                	.insn	2, 0x6920
100002ea:	636e                	.insn	2, 0x636e
100002ec:	6c706d6f          	jal	s10,100071b2 <STACK_TOP+0xffff1b2>
100002f0:	7465                	.insn	2, 0x7465
100002f2:	2065                	.insn	2, 0x2065
100002f4:	7261                	.insn	2, 0x7261
100002f6:	202e7367          	.insn	4, 0x202e7367
100002fa:	7355                	.insn	2, 0x7355
100002fc:	6761                	.insn	2, 0x6761
100002fe:	3a65                	.insn	2, 0x3a65
10000300:	6d20                	.insn	2, 0x6d20
10000302:	6d65                	.insn	2, 0x6d65
10000304:	7720                	.insn	2, 0x7720
10000306:	6972                	.insn	2, 0x6972
10000308:	6574                	.insn	2, 0x6574
1000030a:	3631                	.insn	2, 0x3631
1000030c:	3c20                	.insn	2, 0x3c20
1000030e:	6461                	.insn	2, 0x6461
10000310:	7264                	.insn	2, 0x7264
10000312:	203e                	.insn	2, 0x203e
10000314:	683c                	.insn	2, 0x683c
10000316:	7865                	.insn	2, 0x7865
10000318:	765f 6c61 6575      	.insn	6, 0x65756c61765f
1000031e:	0d3e                	.insn	2, 0x0d3e
10000320:	000a                	.insn	2, 0x000a
10000322:	0000                	.insn	2, 0x0000
10000324:	0a0d                	.insn	2, 0x0a0d
10000326:	7245                	.insn	2, 0x7245
10000328:	6f72                	.insn	2, 0x6f72
1000032a:	3a72                	.insn	2, 0x3a72
1000032c:	6920                	.insn	2, 0x6920
1000032e:	766e                	.insn	2, 0x766e
10000330:	6c61                	.insn	2, 0x6c61
10000332:	6469                	.insn	2, 0x6469
10000334:	6120                	.insn	2, 0x6120
10000336:	6464                	.insn	2, 0x6464
10000338:	6572                	.insn	2, 0x6572
1000033a:	6f207373          	csrrci	t1,0x6f2,0
1000033e:	2072                	.insn	2, 0x2072
10000340:	6176                	.insn	2, 0x6176
10000342:	756c                	.insn	2, 0x756c
10000344:	2e65                	.insn	2, 0x2e65
10000346:	5520                	.insn	2, 0x5520
10000348:	65676173          	csrrsi	sp,hviprio1h,14
1000034c:	203a                	.insn	2, 0x203a
1000034e:	656d                	.insn	2, 0x656d
10000350:	206d                	.insn	2, 0x206d
10000352:	74697277          	.insn	4, 0x74697277
10000356:	3165                	.insn	2, 0x3165
10000358:	2036                	.insn	2, 0x2036
1000035a:	613c                	.insn	2, 0x613c
1000035c:	6464                	.insn	2, 0x6464
1000035e:	3e72                	.insn	2, 0x3e72
10000360:	3c20                	.insn	2, 0x3c20
10000362:	6568                	.insn	2, 0x6568
10000364:	5f78                	.insn	2, 0x5f78
10000366:	6176                	.insn	2, 0x6176
10000368:	756c                	.insn	2, 0x756c
1000036a:	3e65                	.insn	2, 0x3e65
1000036c:	0a0d                	.insn	2, 0x0a0d
1000036e:	0000                	.insn	2, 0x0000
10000370:	0a0d                	.insn	2, 0x0a0d
10000372:	654d                	.insn	2, 0x654d
10000374:	6f6d                	.insn	2, 0x6f6d
10000376:	7972                	.insn	2, 0x7972
10000378:	7720                	.insn	2, 0x7720
1000037a:	6972                	.insn	2, 0x6972
1000037c:	6574                	.insn	2, 0x6574
1000037e:	3631                	.insn	2, 0x3631
10000380:	6420                	.insn	2, 0x6420
10000382:	21656e6f          	jal	t3,10056598 <STACK_TOP+0x1004e598>
10000386:	0a0d                	.insn	2, 0x0a0d
10000388:	0000                	.insn	2, 0x0000
1000038a:	0000                	.insn	2, 0x0000
1000038c:	74697277          	.insn	4, 0x74697277
10000390:	3865                	.insn	2, 0x3865
10000392:	0000                	.insn	2, 0x0000
10000394:	0a0d                	.insn	2, 0x0a0d
10000396:	7245                	.insn	2, 0x7245
10000398:	6f72                	.insn	2, 0x6f72
1000039a:	3a72                	.insn	2, 0x3a72
1000039c:	6920                	.insn	2, 0x6920
1000039e:	636e                	.insn	2, 0x636e
100003a0:	6c706d6f          	jal	s10,10007266 <STACK_TOP+0xffff266>
100003a4:	7465                	.insn	2, 0x7465
100003a6:	2065                	.insn	2, 0x2065
100003a8:	7261                	.insn	2, 0x7261
100003aa:	202e7367          	.insn	4, 0x202e7367
100003ae:	7355                	.insn	2, 0x7355
100003b0:	6761                	.insn	2, 0x6761
100003b2:	3a65                	.insn	2, 0x3a65
100003b4:	6d20                	.insn	2, 0x6d20
100003b6:	6d65                	.insn	2, 0x6d65
100003b8:	7720                	.insn	2, 0x7720
100003ba:	6972                	.insn	2, 0x6972
100003bc:	6574                	.insn	2, 0x6574
100003be:	2038                	.insn	2, 0x2038
100003c0:	613c                	.insn	2, 0x613c
100003c2:	6464                	.insn	2, 0x6464
100003c4:	3e72                	.insn	2, 0x3e72
100003c6:	3c20                	.insn	2, 0x3c20
100003c8:	6568                	.insn	2, 0x6568
100003ca:	5f78                	.insn	2, 0x5f78
100003cc:	6176                	.insn	2, 0x6176
100003ce:	756c                	.insn	2, 0x756c
100003d0:	3e65                	.insn	2, 0x3e65
100003d2:	0a0d                	.insn	2, 0x0a0d
100003d4:	0000                	.insn	2, 0x0000
100003d6:	0000                	.insn	2, 0x0000
100003d8:	0a0d                	.insn	2, 0x0a0d
100003da:	7245                	.insn	2, 0x7245
100003dc:	6f72                	.insn	2, 0x6f72
100003de:	3a72                	.insn	2, 0x3a72
100003e0:	6920                	.insn	2, 0x6920
100003e2:	766e                	.insn	2, 0x766e
100003e4:	6c61                	.insn	2, 0x6c61
100003e6:	6469                	.insn	2, 0x6469
100003e8:	6120                	.insn	2, 0x6120
100003ea:	6464                	.insn	2, 0x6464
100003ec:	6572                	.insn	2, 0x6572
100003ee:	6f207373          	csrrci	t1,0x6f2,0
100003f2:	2072                	.insn	2, 0x2072
100003f4:	6176                	.insn	2, 0x6176
100003f6:	756c                	.insn	2, 0x756c
100003f8:	2e65                	.insn	2, 0x2e65
100003fa:	5520                	.insn	2, 0x5520
100003fc:	65676173          	csrrsi	sp,hviprio1h,14
10000400:	203a                	.insn	2, 0x203a
10000402:	656d                	.insn	2, 0x656d
10000404:	206d                	.insn	2, 0x206d
10000406:	74697277          	.insn	4, 0x74697277
1000040a:	3865                	.insn	2, 0x3865
1000040c:	3c20                	.insn	2, 0x3c20
1000040e:	6461                	.insn	2, 0x6461
10000410:	7264                	.insn	2, 0x7264
10000412:	203e                	.insn	2, 0x203e
10000414:	683c                	.insn	2, 0x683c
10000416:	7865                	.insn	2, 0x7865
10000418:	765f 6c61 6575      	.insn	6, 0x65756c61765f
1000041e:	0d3e                	.insn	2, 0x0d3e
10000420:	000a                	.insn	2, 0x000a
10000422:	0000                	.insn	2, 0x0000
10000424:	0a0d                	.insn	2, 0x0a0d
10000426:	654d                	.insn	2, 0x654d
10000428:	6f6d                	.insn	2, 0x6f6d
1000042a:	7972                	.insn	2, 0x7972
1000042c:	7720                	.insn	2, 0x7720
1000042e:	6972                	.insn	2, 0x6972
10000430:	6574                	.insn	2, 0x6574
10000432:	2038                	.insn	2, 0x2038
10000434:	6f64                	.insn	2, 0x6f64
10000436:	656e                	.insn	2, 0x656e
10000438:	0d21                	.insn	2, 0x0d21
1000043a:	000a                	.insn	2, 0x000a
1000043c:	0a0d                	.insn	2, 0x0a0d
1000043e:	7245                	.insn	2, 0x7245
10000440:	6f72                	.insn	2, 0x6f72
10000442:	3a72                	.insn	2, 0x3a72
10000444:	7520                	.insn	2, 0x7520
10000446:	6b6e                	.insn	2, 0x6b6e
10000448:	6f6e                	.insn	2, 0x6f6e
1000044a:	73206e77          	.insn	4, 0x73206e77
1000044e:	6275                	.insn	2, 0x6275
10000450:	2e646d63          	bltu	s0,t1,1000074a <STACK_TOP+0xfff874a>
10000454:	5520                	.insn	2, 0x5520
10000456:	65676173          	csrrsi	sp,hviprio1h,14
1000045a:	0d3a                	.insn	2, 0x0d3a
1000045c:	200a                	.insn	2, 0x200a
1000045e:	2020                	.insn	2, 0x2020
10000460:	6d20                	.insn	2, 0x6d20
10000462:	6d65                	.insn	2, 0x6d65
10000464:	3c20                	.insn	2, 0x3c20
10000466:	6572                	.insn	2, 0x6572
10000468:	6461                	.insn	2, 0x6461
1000046a:	777c                	.insn	2, 0x777c
1000046c:	6972                	.insn	2, 0x6972
1000046e:	6574                	.insn	2, 0x6574
10000470:	317c385b          	.insn	4, 0x317c385b
10000474:	7c36                	.insn	2, 0x7c36
10000476:	3e5d3233          	.insn	4, 0x3e5d3233
1000047a:	3c20                	.insn	2, 0x3c20
1000047c:	6461                	.insn	2, 0x6461
1000047e:	7264                	.insn	2, 0x7264
10000480:	203e                	.insn	2, 0x203e
10000482:	7865685b          	.insn	4, 0x7865685b
10000486:	765f 6c61 6575      	.insn	6, 0x65756c61765f
1000048c:	0d5d                	.insn	2, 0x0d5d
1000048e:	000a                	.insn	2, 0x000a
10000490:	6f697067          	.insn	4, 0x6f697067
10000494:	0000                	.insn	2, 0x0000
10000496:	0000                	.insn	2, 0x0000
10000498:	656d                	.insn	2, 0x656d
1000049a:	006d                	.insn	2, 0x006d
1000049c:	6568                	.insn	2, 0x6568
1000049e:	706c                	.insn	2, 0x706c
100004a0:	0000                	.insn	2, 0x0000
100004a2:	0000                	.insn	2, 0x0000
100004a4:	0a0d                	.insn	2, 0x0a0d
100004a6:	70707553          	.insn	4, 0x70707553
100004aa:	6574726f          	jal	tp,10048300 <STACK_TOP+0x10040300>
100004ae:	2064                	.insn	2, 0x2064
100004b0:	6d6d6f43          	.insn	4, 0x6d6d6f43
100004b4:	6e61                	.insn	2, 0x6e61
100004b6:	3a64                	.insn	2, 0x3a64
100004b8:	0a0d                	.insn	2, 0x0a0d
100004ba:	2020                	.insn	2, 0x2020
100004bc:	2020                	.insn	2, 0x2020
100004be:	6f697067          	.insn	4, 0x6f697067
100004c2:	3c20                	.insn	2, 0x3c20
100004c4:	6e69                	.insn	2, 0x6e69
100004c6:	6f7c                	.insn	2, 0x6f7c
100004c8:	7475                	.insn	2, 0x7475
100004ca:	203e                	.insn	2, 0x203e
100004cc:	7865685b          	.insn	4, 0x7865685b
100004d0:	765f 6c61 6575      	.insn	6, 0x65756c61765f
100004d6:	0d5d                	.insn	2, 0x0d5d
100004d8:	200a                	.insn	2, 0x200a
100004da:	2020                	.insn	2, 0x2020
100004dc:	6d20                	.insn	2, 0x6d20
100004de:	6d65                	.insn	2, 0x6d65
100004e0:	3c20                	.insn	2, 0x3c20
100004e2:	6572                	.insn	2, 0x6572
100004e4:	6461                	.insn	2, 0x6461
100004e6:	777c                	.insn	2, 0x777c
100004e8:	6972                	.insn	2, 0x6972
100004ea:	6574                	.insn	2, 0x6574
100004ec:	317c385b          	.insn	4, 0x317c385b
100004f0:	7c36                	.insn	2, 0x7c36
100004f2:	3e5d3233          	.insn	4, 0x3e5d3233
100004f6:	3c20                	.insn	2, 0x3c20
100004f8:	6461                	.insn	2, 0x6461
100004fa:	7264                	.insn	2, 0x7264
100004fc:	203e                	.insn	2, 0x203e
100004fe:	7865685b          	.insn	4, 0x7865685b
10000502:	765f 6c61 6575      	.insn	6, 0x65756c61765f
10000508:	0d5d                	.insn	2, 0x0d5d
1000050a:	000a                	.insn	2, 0x000a
1000050c:	0a0d                	.insn	2, 0x0a0d
1000050e:	6e55                	.insn	2, 0x6e55
10000510:	776f6e6b          	.insn	4, 0x776f6e6b
10000514:	206e                	.insn	2, 0x206e
10000516:	6d6d6f63          	bltu	s10,s6,10000bf4 <STACK_TOP+0xfff8bf4>
1000051a:	6e61                	.insn	2, 0x6e61
1000051c:	2e64                	.insn	2, 0x2e64
1000051e:	5420                	.insn	2, 0x5420
10000520:	7079                	.insn	2, 0x7079
10000522:	2065                	.insn	2, 0x2065
10000524:	6c656827          	.insn	4, 0x6c656827
10000528:	2770                	.insn	2, 0x2770
1000052a:	0a0d                	.insn	2, 0x0a0d
1000052c:	0000                	.insn	2, 0x0000
1000052e:	0000                	.insn	2, 0x0000
10000530:	203e                	.insn	2, 0x203e
10000532:	0000                	.insn	2, 0x0000
10000534:	636c6557          	.insn	4, 0x636c6557
10000538:	20656d6f          	jal	s10,1005673e <STACK_TOP+0x1004e73e>
1000053c:	6f74                	.insn	2, 0x6f74
1000053e:	5020                	.insn	2, 0x5020
10000540:	5361                	.insn	2, 0x5361
10000542:	4220436f          	jal	t1,10004964 <STACK_TOP+0xfffc964>
10000546:	4f49                	.insn	2, 0x4f49
10000548:	6f632053          	.insn	4, 0x6f632053
1000054c:	736e                	.insn	2, 0x736e
1000054e:	21656c6f          	jal	s8,10056764 <STACK_TOP+0x1004e764>
10000552:	0a0d                	.insn	2, 0x0a0d
	...

Disassembly of section .riscv.attributes:

00000000 <.riscv.attributes>:
   0:	3641                	.insn	2, 0x3641
   2:	0000                	.insn	2, 0x0000
   4:	7200                	.insn	2, 0x7200
   6:	7369                	.insn	2, 0x7369
   8:	01007663          	bgeu	zero,a6,14 <_start+0x14>
   c:	002c                	.insn	2, 0x002c
   e:	0000                	.insn	2, 0x0000
  10:	1004                	.insn	2, 0x1004
  12:	7205                	.insn	2, 0x7205
  14:	3376                	.insn	2, 0x3376
  16:	6932                	.insn	2, 0x6932
  18:	7032                	.insn	2, 0x7032
  1a:	5f31                	.insn	2, 0x5f31
  1c:	326d                	.insn	2, 0x326d
  1e:	3070                	.insn	2, 0x3070
  20:	7a5f 6369 7273      	.insn	6, 0x727363697a5f
  26:	7032                	.insn	2, 0x7032
  28:	5f30                	.insn	2, 0x5f30
  2a:	6d7a                	.insn	2, 0x6d7a
  2c:	756d                	.insn	2, 0x756d
  2e:	316c                	.insn	2, 0x316c
  30:	3070                	.insn	2, 0x3070
  32:	0800                	.insn	2, 0x0800
  34:	0a01                	.insn	2, 0x0a01
  36:	0b                	.byte	0x0b

Disassembly of section .comment:

00000000 <.comment>:
   0:	3a434347          	.insn	4, 0x3a434347
   4:	2820                	.insn	2, 0x2820
   6:	33623167          	.insn	4, 0x33623167
   a:	3630                	.insn	2, 0x3630
   c:	3330                	.insn	2, 0x3330
   e:	6139                	.insn	2, 0x6139
  10:	20293463          	.insn	4, 0x20293463
  14:	3531                	.insn	2, 0x3531
  16:	312e                	.insn	2, 0x312e
  18:	302e                	.insn	2, 0x302e
	...
