
/tmp/tmp.tdxzNPv6zO/irq.elf：     文件格式 elf32-littleriscv


Disassembly of section .text:

00000000 <_start>:
   0:	40008117          	auipc	sp,0x40008
   4:	00010113          	mv	sp,sp
   8:	300002b7          	lui	t0,0x30000
   c:	00028023          	sb	zero,0(t0) # 30000000 <STACK_TOP+0x2fff8000>
  10:	588000ef          	jal	598 <main>
  14:	01400293          	li	t0,20
  18:	fff28293          	addi	t0,t0,-1
  1c:	fe029ee3          	bnez	t0,18 <_start+0x18>
  20:	c0001073          	unimp
  24:	0000006f          	j	24 <_start+0x24>

00000028 <print_char>:
  28:	fe010113          	addi	sp,sp,-32 # 40007fe0 <_stack_limit+0x3fe0>
  2c:	00112e23          	sw	ra,28(sp)
  30:	00812c23          	sw	s0,24(sp)
  34:	02010413          	addi	s0,sp,32
  38:	00050793          	mv	a5,a0
  3c:	fef407a3          	sb	a5,-17(s0)
  40:	300007b7          	lui	a5,0x30000
  44:	fef44703          	lbu	a4,-17(s0)
  48:	00e78023          	sb	a4,0(a5) # 30000000 <STACK_TOP+0x2fff8000>
  4c:	00000013          	nop
  50:	01c12083          	lw	ra,28(sp)
  54:	01812403          	lw	s0,24(sp)
  58:	02010113          	addi	sp,sp,32
  5c:	00008067          	ret

00000060 <print_str>:
  60:	fe010113          	addi	sp,sp,-32
  64:	00112e23          	sw	ra,28(sp)
  68:	00812c23          	sw	s0,24(sp)
  6c:	02010413          	addi	s0,sp,32
  70:	fea42623          	sw	a0,-20(s0)
  74:	01c0006f          	j	90 <print_str+0x30>
  78:	fec42783          	lw	a5,-20(s0)
  7c:	00178713          	addi	a4,a5,1
  80:	fee42623          	sw	a4,-20(s0)
  84:	0007c783          	lbu	a5,0(a5)
  88:	00078513          	mv	a0,a5
  8c:	f9dff0ef          	jal	28 <print_char>
  90:	fec42783          	lw	a5,-20(s0)
  94:	0007c783          	lbu	a5,0(a5)
  98:	fe0790e3          	bnez	a5,78 <print_str+0x18>
  9c:	00000013          	nop
  a0:	00000013          	nop
  a4:	01c12083          	lw	ra,28(sp)
  a8:	01812403          	lw	s0,24(sp)
  ac:	02010113          	addi	sp,sp,32
  b0:	00008067          	ret

000000b4 <print_hex>:
  b4:	fd010113          	addi	sp,sp,-48
  b8:	02112623          	sw	ra,44(sp)
  bc:	02812423          	sw	s0,40(sp)
  c0:	03010413          	addi	s0,sp,48
  c4:	fca42e23          	sw	a0,-36(s0)
  c8:	fcb42c23          	sw	a1,-40(s0)
  cc:	fd842783          	lw	a5,-40(s0)
  d0:	fff78793          	addi	a5,a5,-1
  d4:	00279793          	slli	a5,a5,0x2
  d8:	fef42623          	sw	a5,-20(s0)
  dc:	0380006f          	j	114 <print_hex+0x60>
  e0:	fec42783          	lw	a5,-20(s0)
  e4:	fdc42703          	lw	a4,-36(s0)
  e8:	00f757b3          	srl	a5,a4,a5
  ec:	00f7f793          	andi	a5,a5,15
  f0:	10000737          	lui	a4,0x10000
  f4:	00070713          	mv	a4,a4
  f8:	00f707b3          	add	a5,a4,a5
  fc:	0007c783          	lbu	a5,0(a5)
 100:	00078513          	mv	a0,a5
 104:	f25ff0ef          	jal	28 <print_char>
 108:	fec42783          	lw	a5,-20(s0)
 10c:	ffc78793          	addi	a5,a5,-4
 110:	fef42623          	sw	a5,-20(s0)
 114:	fec42783          	lw	a5,-20(s0)
 118:	fc07d4e3          	bgez	a5,e0 <print_hex+0x2c>
 11c:	00000013          	nop
 120:	00000013          	nop
 124:	02c12083          	lw	ra,44(sp)
 128:	02812403          	lw	s0,40(sp)
 12c:	03010113          	addi	sp,sp,48
 130:	00008067          	ret

00000134 <read_mtime>:
 134:	fe010113          	addi	sp,sp,-32
 138:	00112e23          	sw	ra,28(sp)
 13c:	00812c23          	sw	s0,24(sp)
 140:	02010413          	addi	s0,sp,32
 144:	60000337          	lui	t1,0x60000
 148:	00430313          	addi	t1,t1,4 # 60000004 <_stack_top+0x1fff8004>
 14c:	00032303          	lw	t1,0(t1)
 150:	fe642623          	sw	t1,-20(s0)
 154:	60000337          	lui	t1,0x60000
 158:	00032303          	lw	t1,0(t1) # 60000000 <_stack_top+0x1fff8000>
 15c:	fe642423          	sw	t1,-24(s0)
 160:	60000337          	lui	t1,0x60000
 164:	00430313          	addi	t1,t1,4 # 60000004 <_stack_top+0x1fff8004>
 168:	00032303          	lw	t1,0(t1)
 16c:	fec42e03          	lw	t3,-20(s0)
 170:	fc6e1ae3          	bne	t3,t1,144 <read_mtime+0x10>
 174:	fec42303          	lw	t1,-20(s0)
 178:	00030813          	mv	a6,t1
 17c:	00000893          	li	a7,0
 180:	00081793          	slli	a5,a6,0x0
 184:	00000713          	li	a4,0
 188:	fe842803          	lw	a6,-24(s0)
 18c:	00080613          	mv	a2,a6
 190:	00000693          	li	a3,0
 194:	00c76533          	or	a0,a4,a2
 198:	00d7e5b3          	or	a1,a5,a3
 19c:	00050713          	mv	a4,a0
 1a0:	00058793          	mv	a5,a1
 1a4:	00070513          	mv	a0,a4
 1a8:	00078593          	mv	a1,a5
 1ac:	01c12083          	lw	ra,28(sp)
 1b0:	01812403          	lw	s0,24(sp)
 1b4:	02010113          	addi	sp,sp,32
 1b8:	00008067          	ret

000001bc <write_mtimecmp>:
 1bc:	fe010113          	addi	sp,sp,-32
 1c0:	00112e23          	sw	ra,28(sp)
 1c4:	00812c23          	sw	s0,24(sp)
 1c8:	02010413          	addi	s0,sp,32
 1cc:	fea42423          	sw	a0,-24(s0)
 1d0:	feb42623          	sw	a1,-20(s0)
 1d4:	600006b7          	lui	a3,0x60000
 1d8:	00c68693          	addi	a3,a3,12 # 6000000c <_stack_top+0x1fff800c>
 1dc:	fff00613          	li	a2,-1
 1e0:	00c6a023          	sw	a2,0(a3)
 1e4:	600006b7          	lui	a3,0x60000
 1e8:	00868693          	addi	a3,a3,8 # 60000008 <_stack_top+0x1fff8008>
 1ec:	fe842603          	lw	a2,-24(s0)
 1f0:	00c6a023          	sw	a2,0(a3)
 1f4:	fec42683          	lw	a3,-20(s0)
 1f8:	0006d713          	srli	a4,a3,0x0
 1fc:	00000793          	li	a5,0
 200:	600006b7          	lui	a3,0x60000
 204:	00c68693          	addi	a3,a3,12 # 6000000c <_stack_top+0x1fff800c>
 208:	00070793          	mv	a5,a4
 20c:	00f6a023          	sw	a5,0(a3)
 210:	00000013          	nop
 214:	01c12083          	lw	ra,28(sp)
 218:	01812403          	lw	s0,24(sp)
 21c:	02010113          	addi	sp,sp,32
 220:	00008067          	ret

00000224 <trap_init>:
 224:	ff010113          	addi	sp,sp,-16
 228:	00112623          	sw	ra,12(sp)
 22c:	00812423          	sw	s0,8(sp)
 230:	01010413          	addi	s0,sp,16
 234:	3bc00793          	li	a5,956
 238:	30579073          	csrw	mtvec,a5
 23c:	00000013          	nop
 240:	00c12083          	lw	ra,12(sp)
 244:	00812403          	lw	s0,8(sp)
 248:	01010113          	addi	sp,sp,16
 24c:	00008067          	ret

00000250 <interrupt_init>:
 250:	fd010113          	addi	sp,sp,-48
 254:	02112623          	sw	ra,44(sp)
 258:	02812423          	sw	s0,40(sp)
 25c:	03010413          	addi	s0,sp,48
 260:	fca42e23          	sw	a0,-36(s0)
 264:	fcb42c23          	sw	a1,-40(s0)
 268:	304027f3          	csrr	a5,mie
 26c:	fef42423          	sw	a5,-24(s0)
 270:	fe842783          	lw	a5,-24(s0)
 274:	fef42623          	sw	a5,-20(s0)
 278:	fdc42783          	lw	a5,-36(s0)
 27c:	00078a63          	beqz	a5,290 <interrupt_init+0x40>
 280:	fec42783          	lw	a5,-20(s0)
 284:	0807e793          	ori	a5,a5,128
 288:	fef42623          	sw	a5,-20(s0)
 28c:	0100006f          	j	29c <interrupt_init+0x4c>
 290:	fec42783          	lw	a5,-20(s0)
 294:	f7f7f793          	andi	a5,a5,-129
 298:	fef42623          	sw	a5,-20(s0)
 29c:	fd842783          	lw	a5,-40(s0)
 2a0:	00078e63          	beqz	a5,2bc <interrupt_init+0x6c>
 2a4:	fec42703          	lw	a4,-20(s0)
 2a8:	000017b7          	lui	a5,0x1
 2ac:	80078793          	addi	a5,a5,-2048 # 800 <main+0x268>
 2b0:	00f767b3          	or	a5,a4,a5
 2b4:	fef42623          	sw	a5,-20(s0)
 2b8:	0180006f          	j	2d0 <interrupt_init+0x80>
 2bc:	fec42703          	lw	a4,-20(s0)
 2c0:	fffff7b7          	lui	a5,0xfffff
 2c4:	7ff78793          	addi	a5,a5,2047 # fffff7ff <_stack_top+0xbfff77ff>
 2c8:	00f777b3          	and	a5,a4,a5
 2cc:	fef42623          	sw	a5,-20(s0)
 2d0:	fec42783          	lw	a5,-20(s0)
 2d4:	30479073          	csrw	mie,a5
 2d8:	300027f3          	csrr	a5,mstatus
 2dc:	fef42223          	sw	a5,-28(s0)
 2e0:	fe442783          	lw	a5,-28(s0)
 2e4:	fef42023          	sw	a5,-32(s0)
 2e8:	fe042783          	lw	a5,-32(s0)
 2ec:	0087e793          	ori	a5,a5,8
 2f0:	fef42023          	sw	a5,-32(s0)
 2f4:	fe042783          	lw	a5,-32(s0)
 2f8:	30079073          	csrw	mstatus,a5
 2fc:	00000013          	nop
 300:	02c12083          	lw	ra,44(sp)
 304:	02812403          	lw	s0,40(sp)
 308:	03010113          	addi	sp,sp,48
 30c:	00008067          	ret

00000310 <timer_init>:
 310:	fd010113          	addi	sp,sp,-48
 314:	02112623          	sw	ra,44(sp)
 318:	02812423          	sw	s0,40(sp)
 31c:	03010413          	addi	s0,sp,48
 320:	fca42c23          	sw	a0,-40(s0)
 324:	fcb42e23          	sw	a1,-36(s0)
 328:	e0dff0ef          	jal	134 <read_mtime>
 32c:	fea42423          	sw	a0,-24(s0)
 330:	feb42623          	sw	a1,-20(s0)
 334:	fe842703          	lw	a4,-24(s0)
 338:	fec42783          	lw	a5,-20(s0)
 33c:	fd842503          	lw	a0,-40(s0)
 340:	fdc42583          	lw	a1,-36(s0)
 344:	00a70633          	add	a2,a4,a0
 348:	00060813          	mv	a6,a2
 34c:	00e83833          	sltu	a6,a6,a4
 350:	00b786b3          	add	a3,a5,a1
 354:	00d807b3          	add	a5,a6,a3
 358:	00078693          	mv	a3,a5
 35c:	00060713          	mv	a4,a2
 360:	00068793          	mv	a5,a3
 364:	00070513          	mv	a0,a4
 368:	00078593          	mv	a1,a5
 36c:	e51ff0ef          	jal	1bc <write_mtimecmp>
 370:	00000013          	nop
 374:	02c12083          	lw	ra,44(sp)
 378:	02812403          	lw	s0,40(sp)
 37c:	03010113          	addi	sp,sp,48
 380:	00008067          	ret

00000384 <plic_init>:
 384:	fe010113          	addi	sp,sp,-32
 388:	00112e23          	sw	ra,28(sp)
 38c:	00812c23          	sw	s0,24(sp)
 390:	02010413          	addi	s0,sp,32
 394:	fea42623          	sw	a0,-20(s0)
 398:	500007b7          	lui	a5,0x50000
 39c:	00478793          	addi	a5,a5,4 # 50000004 <_stack_top+0xfff8004>
 3a0:	fec42703          	lw	a4,-20(s0)
 3a4:	00e7a023          	sw	a4,0(a5)
 3a8:	00000013          	nop
 3ac:	01c12083          	lw	ra,28(sp)
 3b0:	01812403          	lw	s0,24(sp)
 3b4:	02010113          	addi	sp,sp,32
 3b8:	00008067          	ret

000003bc <trap_handler>:
 3bc:	fa010113          	addi	sp,sp,-96
 3c0:	04112e23          	sw	ra,92(sp)
 3c4:	04512c23          	sw	t0,88(sp)
 3c8:	04612a23          	sw	t1,84(sp)
 3cc:	04712823          	sw	t2,80(sp)
 3d0:	04812623          	sw	s0,76(sp)
 3d4:	04a12423          	sw	a0,72(sp)
 3d8:	04b12223          	sw	a1,68(sp)
 3dc:	04c12023          	sw	a2,64(sp)
 3e0:	02d12e23          	sw	a3,60(sp)
 3e4:	02e12c23          	sw	a4,56(sp)
 3e8:	02f12a23          	sw	a5,52(sp)
 3ec:	03012823          	sw	a6,48(sp)
 3f0:	03112623          	sw	a7,44(sp)
 3f4:	03c12423          	sw	t3,40(sp)
 3f8:	03d12223          	sw	t4,36(sp)
 3fc:	03e12023          	sw	t5,32(sp)
 400:	01f12e23          	sw	t6,28(sp)
 404:	06010413          	addi	s0,sp,96
 408:	342027f3          	csrr	a5,mcause
 40c:	faf42623          	sw	a5,-84(s0)
 410:	fac42783          	lw	a5,-84(s0)
 414:	faf42423          	sw	a5,-88(s0)
 418:	fa842783          	lw	a5,-88(s0)
 41c:	0007dc63          	bgez	a5,434 <trap_handler+0x78>
 420:	fa842783          	lw	a5,-88(s0)
 424:	01f7f713          	andi	a4,a5,31
 428:	00700793          	li	a5,7
 42c:	00f71463          	bne	a4,a5,434 <trap_handler+0x78>
 430:	0f8000ef          	jal	528 <timer_irq_handler>
 434:	fa842783          	lw	a5,-88(s0)
 438:	0007dc63          	bgez	a5,450 <trap_handler+0x94>
 43c:	fa842783          	lw	a5,-88(s0)
 440:	01f7f713          	andi	a4,a5,31
 444:	00b00793          	li	a5,11
 448:	00f71463          	bne	a4,a5,450 <trap_handler+0x94>
 44c:	054000ef          	jal	4a0 <external_irq_handler>
 450:	00000013          	nop
 454:	05c12083          	lw	ra,92(sp)
 458:	05812283          	lw	t0,88(sp)
 45c:	05412303          	lw	t1,84(sp)
 460:	05012383          	lw	t2,80(sp)
 464:	04c12403          	lw	s0,76(sp)
 468:	04812503          	lw	a0,72(sp)
 46c:	04412583          	lw	a1,68(sp)
 470:	04012603          	lw	a2,64(sp)
 474:	03c12683          	lw	a3,60(sp)
 478:	03812703          	lw	a4,56(sp)
 47c:	03412783          	lw	a5,52(sp)
 480:	03012803          	lw	a6,48(sp)
 484:	02c12883          	lw	a7,44(sp)
 488:	02812e03          	lw	t3,40(sp)
 48c:	02412e83          	lw	t4,36(sp)
 490:	02012f03          	lw	t5,32(sp)
 494:	01c12f83          	lw	t6,28(sp)
 498:	06010113          	addi	sp,sp,96
 49c:	30200073          	mret

000004a0 <external_irq_handler>:
 4a0:	fe010113          	addi	sp,sp,-32
 4a4:	00112e23          	sw	ra,28(sp)
 4a8:	00812c23          	sw	s0,24(sp)
 4ac:	02010413          	addi	s0,sp,32
 4b0:	100007b7          	lui	a5,0x10000
 4b4:	01478513          	addi	a0,a5,20 # 10000014 <STACK_TOP+0xfff8014>
 4b8:	ba9ff0ef          	jal	60 <print_str>
 4bc:	500007b7          	lui	a5,0x50000
 4c0:	00c78793          	addi	a5,a5,12 # 5000000c <_stack_top+0xfff800c>
 4c4:	0007a783          	lw	a5,0(a5)
 4c8:	00f7f793          	andi	a5,a5,15
 4cc:	fef42623          	sw	a5,-20(s0)
 4d0:	fec42783          	lw	a5,-20(s0)
 4d4:	04078063          	beqz	a5,514 <external_irq_handler+0x74>
 4d8:	fec42703          	lw	a4,-20(s0)
 4dc:	00800793          	li	a5,8
 4e0:	00f71a63          	bne	a4,a5,4f4 <external_irq_handler+0x54>
 4e4:	100007b7          	lui	a5,0x10000
 4e8:	02c78513          	addi	a0,a5,44 # 1000002c <STACK_TOP+0xfff802c>
 4ec:	b75ff0ef          	jal	60 <print_str>
 4f0:	0140006f          	j	504 <external_irq_handler+0x64>
 4f4:	100007b7          	lui	a5,0x10000
 4f8:	03478513          	addi	a0,a5,52 # 10000034 <STACK_TOP+0xfff8034>
 4fc:	b65ff0ef          	jal	60 <print_str>
 500:	00000013          	nop
 504:	500007b7          	lui	a5,0x50000
 508:	00c78793          	addi	a5,a5,12 # 5000000c <_stack_top+0xfff800c>
 50c:	fec42703          	lw	a4,-20(s0)
 510:	00e7a023          	sw	a4,0(a5)
 514:	00000013          	nop
 518:	01c12083          	lw	ra,28(sp)
 51c:	01812403          	lw	s0,24(sp)
 520:	02010113          	addi	sp,sp,32
 524:	00008067          	ret

00000528 <timer_irq_handler>:
 528:	ff010113          	addi	sp,sp,-16
 52c:	00112623          	sw	ra,12(sp)
 530:	00812423          	sw	s0,8(sp)
 534:	01010413          	addi	s0,sp,16
 538:	02626537          	lui	a0,0x2626
 53c:	a0050513          	addi	a0,a0,-1536 # 2625a00 <STACK_TOP+0x261da00>
 540:	00000593          	li	a1,0
 544:	dcdff0ef          	jal	310 <timer_init>
 548:	400007b7          	lui	a5,0x40000
 54c:	0007a783          	lw	a5,0(a5) # 40000000 <g_tick>
 550:	00178713          	addi	a4,a5,1
 554:	400007b7          	lui	a5,0x40000
 558:	00e7a023          	sw	a4,0(a5) # 40000000 <g_tick>
 55c:	100007b7          	lui	a5,0x10000
 560:	03c78513          	addi	a0,a5,60 # 1000003c <STACK_TOP+0xfff803c>
 564:	afdff0ef          	jal	60 <print_str>
 568:	400007b7          	lui	a5,0x40000
 56c:	0007a783          	lw	a5,0(a5) # 40000000 <g_tick>
 570:	00100593          	li	a1,1
 574:	00078513          	mv	a0,a5
 578:	b3dff0ef          	jal	b4 <print_hex>
 57c:	00a00513          	li	a0,10
 580:	aa9ff0ef          	jal	28 <print_char>
 584:	00000013          	nop
 588:	00c12083          	lw	ra,12(sp)
 58c:	00812403          	lw	s0,8(sp)
 590:	01010113          	addi	sp,sp,16
 594:	00008067          	ret

00000598 <main>:
 598:	ff010113          	addi	sp,sp,-16
 59c:	00112623          	sw	ra,12(sp)
 5a0:	00812423          	sw	s0,8(sp)
 5a4:	01010413          	addi	s0,sp,16
 5a8:	c7dff0ef          	jal	224 <trap_init>
 5ac:	00100593          	li	a1,1
 5b0:	00100513          	li	a0,1
 5b4:	c9dff0ef          	jal	250 <interrupt_init>
 5b8:	08100513          	li	a0,129
 5bc:	dc9ff0ef          	jal	384 <plic_init>
 5c0:	01313537          	lui	a0,0x1313
 5c4:	d0050513          	addi	a0,a0,-768 # 1312d00 <STACK_TOP+0x130ad00>
 5c8:	00000593          	li	a1,0
 5cc:	d45ff0ef          	jal	310 <timer_init>
 5d0:	0000006f          	j	5d0 <main+0x38>

Disassembly of section .rodata:

10000000 <_end-0x30000000>:
10000000:	3130                	.insn	2, 0x3130
10000002:	3332                	.insn	2, 0x3332
10000004:	3534                	.insn	2, 0x3534
10000006:	3736                	.insn	2, 0x3736
10000008:	3938                	.insn	2, 0x3938
1000000a:	4241                	.insn	2, 0x4241
1000000c:	46454443          	.insn	4, 0x46454443
10000010:	0000                	.insn	2, 0x0000
10000012:	0000                	.insn	2, 0x0000
10000014:	7845                	.insn	2, 0x7845
10000016:	6574                	.insn	2, 0x6574
10000018:	6e72                	.insn	2, 0x6e72
1000001a:	6c61                	.insn	2, 0x6c61
1000001c:	4920                	.insn	2, 0x4920
1000001e:	746e                	.insn	2, 0x746e
10000020:	7265                	.insn	2, 0x7265
10000022:	7572                	.insn	2, 0x7572
10000024:	7470                	.insn	2, 0x7470
10000026:	203a                	.insn	2, 0x203a
10000028:	0000                	.insn	2, 0x0000
1000002a:	0000                	.insn	2, 0x0000
1000002c:	4f495047          	.insn	4, 0x4f495047
10000030:	000a                	.insn	2, 0x000a
10000032:	0000                	.insn	2, 0x0000
10000034:	6568744f          	.insn	4, 0x6568744f
10000038:	0a72                	.insn	2, 0x0a72
1000003a:	0000                	.insn	2, 0x0000
1000003c:	6954                	.insn	2, 0x6954
1000003e:	656d                	.insn	2, 0x656d
10000040:	2072                	.insn	2, 0x2072
10000042:	6e49                	.insn	2, 0x6e49
10000044:	6574                	.insn	2, 0x6574
10000046:	7272                	.insn	2, 0x7272
10000048:	7075                	.insn	2, 0x7075
1000004a:	3a74                	.insn	2, 0x3a74
1000004c:	0020                	.insn	2, 0x0020

Disassembly of section .riscv.attributes:

00000000 <.riscv.attributes>:
   0:	3641                	.insn	2, 0x3641
   2:	0000                	.insn	2, 0x0000
   4:	7200                	.insn	2, 0x7200
   6:	7369                	.insn	2, 0x7369
   8:	01007663          	bgeu	zero,a6,14 <_start+0x14>
   c:	002c                	.insn	2, 0x002c
   e:	0000                	.insn	2, 0x0000
  10:	1004                	.insn	2, 0x1004
  12:	7205                	.insn	2, 0x7205
  14:	3376                	.insn	2, 0x3376
  16:	6932                	.insn	2, 0x6932
  18:	7032                	.insn	2, 0x7032
  1a:	5f31                	.insn	2, 0x5f31
  1c:	326d                	.insn	2, 0x326d
  1e:	3070                	.insn	2, 0x3070
  20:	7a5f 6369 7273      	.insn	6, 0x727363697a5f
  26:	7032                	.insn	2, 0x7032
  28:	5f30                	.insn	2, 0x5f30
  2a:	6d7a                	.insn	2, 0x6d7a
  2c:	756d                	.insn	2, 0x756d
  2e:	316c                	.insn	2, 0x316c
  30:	3070                	.insn	2, 0x3070
  32:	0800                	.insn	2, 0x0800
  34:	0a01                	.insn	2, 0x0a01
  36:	0b                	.byte	0x0b

Disassembly of section .comment:

00000000 <.comment>:
   0:	3a434347          	.insn	4, 0x3a434347
   4:	2820                	.insn	2, 0x2820
   6:	2029                	.insn	2, 0x2029
   8:	3531                	.insn	2, 0x3531
   a:	312e                	.insn	2, 0x312e
   c:	302e                	.insn	2, 0x302e
	...
