
/tmp/tmp.3bE49lA21d/sdram.elf:     file format elf32-littleriscv


Disassembly of section .text:

00000000 <_start>:
   0:	10004117          	auipc	sp,0x10004
   4:	00010113          	mv	sp,sp
   8:	390000ef          	jal	398 <main>
   c:	01400293          	li	t0,20
  10:	fff28293          	addi	t0,t0,-1
  14:	fe029ee3          	bnez	t0,10 <_start+0x10>
  18:	c0001073          	unimp
  1c:	0000006f          	j	1c <_start+0x1c>

00000020 <print_char>:
  20:	fe010113          	addi	sp,sp,-32 # 10003fe0 <_stack_limit+0xfe0>
  24:	00112e23          	sw	ra,28(sp)
  28:	00812c23          	sw	s0,24(sp)
  2c:	02010413          	addi	s0,sp,32
  30:	00050793          	mv	a5,a0
  34:	fef407a3          	sb	a5,-17(s0)
  38:	300007b7          	lui	a5,0x30000
  3c:	fef44703          	lbu	a4,-17(s0)
  40:	00e78023          	sb	a4,0(a5) # 30000000 <_stack_top+0x1fffc000>
  44:	00000013          	nop
  48:	01c12083          	lw	ra,28(sp)
  4c:	01812403          	lw	s0,24(sp)
  50:	02010113          	addi	sp,sp,32
  54:	00008067          	ret

00000058 <print_str>:
  58:	fe010113          	addi	sp,sp,-32
  5c:	00112e23          	sw	ra,28(sp)
  60:	00812c23          	sw	s0,24(sp)
  64:	02010413          	addi	s0,sp,32
  68:	fea42623          	sw	a0,-20(s0)
  6c:	01c0006f          	j	88 <print_str+0x30>
  70:	fec42783          	lw	a5,-20(s0)
  74:	00178713          	addi	a4,a5,1
  78:	fee42623          	sw	a4,-20(s0)
  7c:	0007c783          	lbu	a5,0(a5)
  80:	00078513          	mv	a0,a5
  84:	f9dff0ef          	jal	20 <print_char>
  88:	fec42783          	lw	a5,-20(s0)
  8c:	0007c783          	lbu	a5,0(a5)
  90:	fe0790e3          	bnez	a5,70 <print_str+0x18>
  94:	00000013          	nop
  98:	00000013          	nop
  9c:	01c12083          	lw	ra,28(sp)
  a0:	01812403          	lw	s0,24(sp)
  a4:	02010113          	addi	sp,sp,32
  a8:	00008067          	ret

000000ac <print_hex>:
  ac:	fd010113          	addi	sp,sp,-48
  b0:	02112623          	sw	ra,44(sp)
  b4:	02812423          	sw	s0,40(sp)
  b8:	03010413          	addi	s0,sp,48
  bc:	fca42e23          	sw	a0,-36(s0)
  c0:	fcb42c23          	sw	a1,-40(s0)
  c4:	fd842783          	lw	a5,-40(s0)
  c8:	fff78793          	addi	a5,a5,-1
  cc:	00279793          	slli	a5,a5,0x2
  d0:	fef42623          	sw	a5,-20(s0)
  d4:	0380006f          	j	10c <print_hex+0x60>
  d8:	fec42783          	lw	a5,-20(s0)
  dc:	fdc42703          	lw	a4,-36(s0)
  e0:	00f757b3          	srl	a5,a4,a5
  e4:	00f7f793          	andi	a5,a5,15
  e8:	10000737          	lui	a4,0x10000
  ec:	00070713          	mv	a4,a4
  f0:	00f707b3          	add	a5,a4,a5
  f4:	0007c783          	lbu	a5,0(a5)
  f8:	00078513          	mv	a0,a5
  fc:	f25ff0ef          	jal	20 <print_char>
 100:	fec42783          	lw	a5,-20(s0)
 104:	ffc78793          	addi	a5,a5,-4
 108:	fef42623          	sw	a5,-20(s0)
 10c:	fec42783          	lw	a5,-20(s0)
 110:	fc07d4e3          	bgez	a5,d8 <print_hex+0x2c>
 114:	00000013          	nop
 118:	00000013          	nop
 11c:	02c12083          	lw	ra,44(sp)
 120:	02812403          	lw	s0,40(sp)
 124:	03010113          	addi	sp,sp,48
 128:	00008067          	ret

0000012c <write_mem>:
 12c:	fe010113          	addi	sp,sp,-32
 130:	00112e23          	sw	ra,28(sp)
 134:	00812c23          	sw	s0,24(sp)
 138:	02010413          	addi	s0,sp,32
 13c:	fea42623          	sw	a0,-20(s0)
 140:	feb42423          	sw	a1,-24(s0)
 144:	fec42783          	lw	a5,-20(s0)
 148:	fe842703          	lw	a4,-24(s0)
 14c:	00e7a023          	sw	a4,0(a5)
 150:	00000013          	nop
 154:	01c12083          	lw	ra,28(sp)
 158:	01812403          	lw	s0,24(sp)
 15c:	02010113          	addi	sp,sp,32
 160:	00008067          	ret

00000164 <read_mem>:
 164:	fe010113          	addi	sp,sp,-32
 168:	00112e23          	sw	ra,28(sp)
 16c:	00812c23          	sw	s0,24(sp)
 170:	02010413          	addi	s0,sp,32
 174:	fea42623          	sw	a0,-20(s0)
 178:	fec42783          	lw	a5,-20(s0)
 17c:	0007a783          	lw	a5,0(a5)
 180:	00078513          	mv	a0,a5
 184:	01c12083          	lw	ra,28(sp)
 188:	01812403          	lw	s0,24(sp)
 18c:	02010113          	addi	sp,sp,32
 190:	00008067          	ret

00000194 <test_sdram>:
 194:	fe010113          	addi	sp,sp,-32
 198:	00112e23          	sw	ra,28(sp)
 19c:	00812c23          	sw	s0,24(sp)
 1a0:	02010413          	addi	s0,sp,32
 1a4:	100007b7          	lui	a5,0x10000
 1a8:	01478513          	addi	a0,a5,20 # 10000014 <STACK_SIZE+0xffff014>
 1ac:	eadff0ef          	jal	58 <print_str>
 1b0:	400007b7          	lui	a5,0x40000
 1b4:	fef42623          	sw	a5,-20(s0)
 1b8:	01c0006f          	j	1d4 <test_sdram+0x40>
 1bc:	fec42583          	lw	a1,-20(s0)
 1c0:	fec42503          	lw	a0,-20(s0)
 1c4:	f69ff0ef          	jal	12c <write_mem>
 1c8:	fec42783          	lw	a5,-20(s0)
 1cc:	00478793          	addi	a5,a5,4 # 40000004 <_stack_top+0x2fffc004>
 1d0:	fef42623          	sw	a5,-20(s0)
 1d4:	fec42703          	lw	a4,-20(s0)
 1d8:	408007b7          	lui	a5,0x40800
 1dc:	fef760e3          	bltu	a4,a5,1bc <test_sdram+0x28>
 1e0:	400007b7          	lui	a5,0x40000
 1e4:	fef42623          	sw	a5,-20(s0)
 1e8:	08c0006f          	j	274 <test_sdram+0xe0>
 1ec:	fec42503          	lw	a0,-20(s0)
 1f0:	f75ff0ef          	jal	164 <read_mem>
 1f4:	fea42223          	sw	a0,-28(s0)
 1f8:	fe442703          	lw	a4,-28(s0)
 1fc:	fec42783          	lw	a5,-20(s0)
 200:	06f70463          	beq	a4,a5,268 <test_sdram+0xd4>
 204:	100007b7          	lui	a5,0x10000
 208:	03478513          	addi	a0,a5,52 # 10000034 <STACK_SIZE+0xffff034>
 20c:	e4dff0ef          	jal	58 <print_str>
 210:	00800593          	li	a1,8
 214:	fec42503          	lw	a0,-20(s0)
 218:	e95ff0ef          	jal	ac <print_hex>
 21c:	100007b7          	lui	a5,0x10000
 220:	04478513          	addi	a0,a5,68 # 10000044 <STACK_SIZE+0xffff044>
 224:	e35ff0ef          	jal	58 <print_str>
 228:	00800593          	li	a1,8
 22c:	fec42503          	lw	a0,-20(s0)
 230:	e7dff0ef          	jal	ac <print_hex>
 234:	100007b7          	lui	a5,0x10000
 238:	05078513          	addi	a0,a5,80 # 10000050 <STACK_SIZE+0xffff050>
 23c:	e1dff0ef          	jal	58 <print_str>
 240:	00800593          	li	a1,8
 244:	fe442503          	lw	a0,-28(s0)
 248:	e65ff0ef          	jal	ac <print_hex>
 24c:	100007b7          	lui	a5,0x10000
 250:	05c78513          	addi	a0,a5,92 # 1000005c <STACK_SIZE+0xffff05c>
 254:	e05ff0ef          	jal	58 <print_str>
 258:	100007b7          	lui	a5,0x10000
 25c:	06078513          	addi	a0,a5,96 # 10000060 <STACK_SIZE+0xffff060>
 260:	df9ff0ef          	jal	58 <print_str>
 264:	1240006f          	j	388 <test_sdram+0x1f4>
 268:	fec42783          	lw	a5,-20(s0)
 26c:	00478793          	addi	a5,a5,4
 270:	fef42623          	sw	a5,-20(s0)
 274:	fec42703          	lw	a4,-20(s0)
 278:	408007b7          	lui	a5,0x40800
 27c:	f6f768e3          	bltu	a4,a5,1ec <test_sdram+0x58>
 280:	100007b7          	lui	a5,0x10000
 284:	07878513          	addi	a0,a5,120 # 10000078 <STACK_SIZE+0xffff078>
 288:	dd1ff0ef          	jal	58 <print_str>
 28c:	100007b7          	lui	a5,0x10000
 290:	08878513          	addi	a0,a5,136 # 10000088 <STACK_SIZE+0xffff088>
 294:	dc5ff0ef          	jal	58 <print_str>
 298:	400007b7          	lui	a5,0x40000
 29c:	fef42623          	sw	a5,-20(s0)
 2a0:	0240006f          	j	2c4 <test_sdram+0x130>
 2a4:	fec42783          	lw	a5,-20(s0)
 2a8:	fff7c793          	not	a5,a5
 2ac:	00078593          	mv	a1,a5
 2b0:	fec42503          	lw	a0,-20(s0)
 2b4:	e79ff0ef          	jal	12c <write_mem>
 2b8:	fec42783          	lw	a5,-20(s0)
 2bc:	00478793          	addi	a5,a5,4 # 40000004 <_stack_top+0x2fffc004>
 2c0:	fef42623          	sw	a5,-20(s0)
 2c4:	fec42703          	lw	a4,-20(s0)
 2c8:	408007b7          	lui	a5,0x40800
 2cc:	fcf76ce3          	bltu	a4,a5,2a4 <test_sdram+0x110>
 2d0:	400007b7          	lui	a5,0x40000
 2d4:	fef42623          	sw	a5,-20(s0)
 2d8:	08c0006f          	j	364 <test_sdram+0x1d0>
 2dc:	fec42503          	lw	a0,-20(s0)
 2e0:	e85ff0ef          	jal	164 <read_mem>
 2e4:	fea42423          	sw	a0,-24(s0)
 2e8:	fec42783          	lw	a5,-20(s0)
 2ec:	fff7c793          	not	a5,a5
 2f0:	fe842703          	lw	a4,-24(s0)
 2f4:	06f70263          	beq	a4,a5,358 <test_sdram+0x1c4>
 2f8:	100007b7          	lui	a5,0x10000
 2fc:	03478513          	addi	a0,a5,52 # 10000034 <STACK_SIZE+0xffff034>
 300:	d59ff0ef          	jal	58 <print_str>
 304:	00800593          	li	a1,8
 308:	fec42503          	lw	a0,-20(s0)
 30c:	da1ff0ef          	jal	ac <print_hex>
 310:	100007b7          	lui	a5,0x10000
 314:	04478513          	addi	a0,a5,68 # 10000044 <STACK_SIZE+0xffff044>
 318:	d41ff0ef          	jal	58 <print_str>
 31c:	fec42783          	lw	a5,-20(s0)
 320:	fff7c793          	not	a5,a5
 324:	00800593          	li	a1,8
 328:	00078513          	mv	a0,a5
 32c:	d81ff0ef          	jal	ac <print_hex>
 330:	100007b7          	lui	a5,0x10000
 334:	05078513          	addi	a0,a5,80 # 10000050 <STACK_SIZE+0xffff050>
 338:	d21ff0ef          	jal	58 <print_str>
 33c:	00800593          	li	a1,8
 340:	fe842503          	lw	a0,-24(s0)
 344:	d69ff0ef          	jal	ac <print_hex>
 348:	100007b7          	lui	a5,0x10000
 34c:	06078513          	addi	a0,a5,96 # 10000060 <STACK_SIZE+0xffff060>
 350:	d09ff0ef          	jal	58 <print_str>
 354:	0340006f          	j	388 <test_sdram+0x1f4>
 358:	fec42783          	lw	a5,-20(s0)
 35c:	00478793          	addi	a5,a5,4
 360:	fef42623          	sw	a5,-20(s0)
 364:	fec42703          	lw	a4,-20(s0)
 368:	408007b7          	lui	a5,0x40800
 36c:	f6f768e3          	bltu	a4,a5,2dc <test_sdram+0x148>
 370:	100007b7          	lui	a5,0x10000
 374:	0a878513          	addi	a0,a5,168 # 100000a8 <STACK_SIZE+0xffff0a8>
 378:	ce1ff0ef          	jal	58 <print_str>
 37c:	100007b7          	lui	a5,0x10000
 380:	0b878513          	addi	a0,a5,184 # 100000b8 <STACK_SIZE+0xffff0b8>
 384:	cd5ff0ef          	jal	58 <print_str>
 388:	01c12083          	lw	ra,28(sp)
 38c:	01812403          	lw	s0,24(sp)
 390:	02010113          	addi	sp,sp,32
 394:	00008067          	ret

00000398 <main>:
 398:	ff010113          	addi	sp,sp,-16
 39c:	00112623          	sw	ra,12(sp)
 3a0:	00812423          	sw	s0,8(sp)
 3a4:	01010413          	addi	s0,sp,16
 3a8:	100007b7          	lui	a5,0x10000
 3ac:	0d078513          	addi	a0,a5,208 # 100000d0 <STACK_SIZE+0xffff0d0>
 3b0:	ca9ff0ef          	jal	58 <print_str>
 3b4:	de1ff0ef          	jal	194 <test_sdram>
 3b8:	00000793          	li	a5,0
 3bc:	00078513          	mv	a0,a5
 3c0:	00c12083          	lw	ra,12(sp)
 3c4:	00812403          	lw	s0,8(sp)
 3c8:	01010113          	addi	sp,sp,16
 3cc:	00008067          	ret
