
/tmp/tmp.uE1118vWHr/sdram.elf:     file format elf32-littleriscv


Disassembly of section .text:

00000000 <_start>:
   0:	10002117          	auipc	sp,0x10002
   4:	00010113          	mv	sp,sp
   8:	300002b7          	lui	t0,0x30000
   c:	00028023          	sb	zero,0(t0) # 30000000 <_stack_top+0x1fffe000>
  10:	390000ef          	jal	3a0 <main>
  14:	01400293          	li	t0,20
  18:	fff28293          	addi	t0,t0,-1
  1c:	fe029ee3          	bnez	t0,18 <_start+0x18>
  20:	c0001073          	unimp
  24:	0000006f          	j	24 <_start+0x24>

00000028 <print_char>:
  28:	fe010113          	addi	sp,sp,-32 # 10001fe0 <_stack_limit+0x3fe0>
  2c:	00112e23          	sw	ra,28(sp)
  30:	00812c23          	sw	s0,24(sp)
  34:	02010413          	addi	s0,sp,32
  38:	00050793          	mv	a5,a0
  3c:	fef407a3          	sb	a5,-17(s0)
  40:	300007b7          	lui	a5,0x30000
  44:	fef44703          	lbu	a4,-17(s0)
  48:	00e78023          	sb	a4,0(a5) # 30000000 <_stack_top+0x1fffe000>
  4c:	00000013          	nop
  50:	01c12083          	lw	ra,28(sp)
  54:	01812403          	lw	s0,24(sp)
  58:	02010113          	addi	sp,sp,32
  5c:	00008067          	ret

00000060 <print_str>:
  60:	fe010113          	addi	sp,sp,-32
  64:	00112e23          	sw	ra,28(sp)
  68:	00812c23          	sw	s0,24(sp)
  6c:	02010413          	addi	s0,sp,32
  70:	fea42623          	sw	a0,-20(s0)
  74:	01c0006f          	j	90 <print_str+0x30>
  78:	fec42783          	lw	a5,-20(s0)
  7c:	00178713          	addi	a4,a5,1
  80:	fee42623          	sw	a4,-20(s0)
  84:	0007c783          	lbu	a5,0(a5)
  88:	00078513          	mv	a0,a5
  8c:	f9dff0ef          	jal	28 <print_char>
  90:	fec42783          	lw	a5,-20(s0)
  94:	0007c783          	lbu	a5,0(a5)
  98:	fe0790e3          	bnez	a5,78 <print_str+0x18>
  9c:	00000013          	nop
  a0:	00000013          	nop
  a4:	01c12083          	lw	ra,28(sp)
  a8:	01812403          	lw	s0,24(sp)
  ac:	02010113          	addi	sp,sp,32
  b0:	00008067          	ret

000000b4 <print_hex>:
  b4:	fd010113          	addi	sp,sp,-48
  b8:	02112623          	sw	ra,44(sp)
  bc:	02812423          	sw	s0,40(sp)
  c0:	03010413          	addi	s0,sp,48
  c4:	fca42e23          	sw	a0,-36(s0)
  c8:	fcb42c23          	sw	a1,-40(s0)
  cc:	fd842783          	lw	a5,-40(s0)
  d0:	fff78793          	addi	a5,a5,-1
  d4:	00279793          	slli	a5,a5,0x2
  d8:	fef42623          	sw	a5,-20(s0)
  dc:	0380006f          	j	114 <print_hex+0x60>
  e0:	fec42783          	lw	a5,-20(s0)
  e4:	fdc42703          	lw	a4,-36(s0)
  e8:	00f757b3          	srl	a5,a4,a5
  ec:	00f7f793          	andi	a5,a5,15
  f0:	10000737          	lui	a4,0x10000
  f4:	00070713          	mv	a4,a4
  f8:	00f707b3          	add	a5,a4,a5
  fc:	0007c783          	lbu	a5,0(a5)
 100:	00078513          	mv	a0,a5
 104:	f25ff0ef          	jal	28 <print_char>
 108:	fec42783          	lw	a5,-20(s0)
 10c:	ffc78793          	addi	a5,a5,-4
 110:	fef42623          	sw	a5,-20(s0)
 114:	fec42783          	lw	a5,-20(s0)
 118:	fc07d4e3          	bgez	a5,e0 <print_hex+0x2c>
 11c:	00000013          	nop
 120:	00000013          	nop
 124:	02c12083          	lw	ra,44(sp)
 128:	02812403          	lw	s0,40(sp)
 12c:	03010113          	addi	sp,sp,48
 130:	00008067          	ret

00000134 <write_mem>:
 134:	fe010113          	addi	sp,sp,-32
 138:	00112e23          	sw	ra,28(sp)
 13c:	00812c23          	sw	s0,24(sp)
 140:	02010413          	addi	s0,sp,32
 144:	fea42623          	sw	a0,-20(s0)
 148:	feb42423          	sw	a1,-24(s0)
 14c:	fec42783          	lw	a5,-20(s0)
 150:	fe842703          	lw	a4,-24(s0)
 154:	00e7a023          	sw	a4,0(a5)
 158:	00000013          	nop
 15c:	01c12083          	lw	ra,28(sp)
 160:	01812403          	lw	s0,24(sp)
 164:	02010113          	addi	sp,sp,32
 168:	00008067          	ret

0000016c <read_mem>:
 16c:	fe010113          	addi	sp,sp,-32
 170:	00112e23          	sw	ra,28(sp)
 174:	00812c23          	sw	s0,24(sp)
 178:	02010413          	addi	s0,sp,32
 17c:	fea42623          	sw	a0,-20(s0)
 180:	fec42783          	lw	a5,-20(s0)
 184:	0007a783          	lw	a5,0(a5)
 188:	00078513          	mv	a0,a5
 18c:	01c12083          	lw	ra,28(sp)
 190:	01812403          	lw	s0,24(sp)
 194:	02010113          	addi	sp,sp,32
 198:	00008067          	ret

0000019c <test_sdram>:
 19c:	fe010113          	addi	sp,sp,-32
 1a0:	00112e23          	sw	ra,28(sp)
 1a4:	00812c23          	sw	s0,24(sp)
 1a8:	02010413          	addi	s0,sp,32
 1ac:	100007b7          	lui	a5,0x10000
 1b0:	01478513          	addi	a0,a5,20 # 10000014 <_stack_limit+0x2014>
 1b4:	eadff0ef          	jal	60 <print_str>
 1b8:	400007b7          	lui	a5,0x40000
 1bc:	fef42623          	sw	a5,-20(s0)
 1c0:	01c0006f          	j	1dc <test_sdram+0x40>
 1c4:	fec42583          	lw	a1,-20(s0)
 1c8:	fec42503          	lw	a0,-20(s0)
 1cc:	f69ff0ef          	jal	134 <write_mem>
 1d0:	fec42783          	lw	a5,-20(s0)
 1d4:	00478793          	addi	a5,a5,4 # 40000004 <_end+0x4>
 1d8:	fef42623          	sw	a5,-20(s0)
 1dc:	fec42703          	lw	a4,-20(s0)
 1e0:	410007b7          	lui	a5,0x41000
 1e4:	fef760e3          	bltu	a4,a5,1c4 <test_sdram+0x28>
 1e8:	400007b7          	lui	a5,0x40000
 1ec:	fef42623          	sw	a5,-20(s0)
 1f0:	08c0006f          	j	27c <test_sdram+0xe0>
 1f4:	fec42503          	lw	a0,-20(s0)
 1f8:	f75ff0ef          	jal	16c <read_mem>
 1fc:	fea42223          	sw	a0,-28(s0)
 200:	fe442703          	lw	a4,-28(s0)
 204:	fec42783          	lw	a5,-20(s0)
 208:	06f70463          	beq	a4,a5,270 <test_sdram+0xd4>
 20c:	100007b7          	lui	a5,0x10000
 210:	03478513          	addi	a0,a5,52 # 10000034 <_stack_limit+0x2034>
 214:	e4dff0ef          	jal	60 <print_str>
 218:	00800593          	li	a1,8
 21c:	fec42503          	lw	a0,-20(s0)
 220:	e95ff0ef          	jal	b4 <print_hex>
 224:	100007b7          	lui	a5,0x10000
 228:	04478513          	addi	a0,a5,68 # 10000044 <_stack_limit+0x2044>
 22c:	e35ff0ef          	jal	60 <print_str>
 230:	00800593          	li	a1,8
 234:	fec42503          	lw	a0,-20(s0)
 238:	e7dff0ef          	jal	b4 <print_hex>
 23c:	100007b7          	lui	a5,0x10000
 240:	05078513          	addi	a0,a5,80 # 10000050 <_stack_limit+0x2050>
 244:	e1dff0ef          	jal	60 <print_str>
 248:	00800593          	li	a1,8
 24c:	fe442503          	lw	a0,-28(s0)
 250:	e65ff0ef          	jal	b4 <print_hex>
 254:	100007b7          	lui	a5,0x10000
 258:	05c78513          	addi	a0,a5,92 # 1000005c <_stack_limit+0x205c>
 25c:	e05ff0ef          	jal	60 <print_str>
 260:	100007b7          	lui	a5,0x10000
 264:	06078513          	addi	a0,a5,96 # 10000060 <_stack_limit+0x2060>
 268:	df9ff0ef          	jal	60 <print_str>
 26c:	1240006f          	j	390 <test_sdram+0x1f4>
 270:	fec42783          	lw	a5,-20(s0)
 274:	00478793          	addi	a5,a5,4
 278:	fef42623          	sw	a5,-20(s0)
 27c:	fec42703          	lw	a4,-20(s0)
 280:	410007b7          	lui	a5,0x41000
 284:	f6f768e3          	bltu	a4,a5,1f4 <test_sdram+0x58>
 288:	100007b7          	lui	a5,0x10000
 28c:	07878513          	addi	a0,a5,120 # 10000078 <_stack_limit+0x2078>
 290:	dd1ff0ef          	jal	60 <print_str>
 294:	100007b7          	lui	a5,0x10000
 298:	08878513          	addi	a0,a5,136 # 10000088 <_stack_limit+0x2088>
 29c:	dc5ff0ef          	jal	60 <print_str>
 2a0:	400007b7          	lui	a5,0x40000
 2a4:	fef42623          	sw	a5,-20(s0)
 2a8:	0240006f          	j	2cc <test_sdram+0x130>
 2ac:	fec42783          	lw	a5,-20(s0)
 2b0:	fff7c793          	not	a5,a5
 2b4:	00078593          	mv	a1,a5
 2b8:	fec42503          	lw	a0,-20(s0)
 2bc:	e79ff0ef          	jal	134 <write_mem>
 2c0:	fec42783          	lw	a5,-20(s0)
 2c4:	00478793          	addi	a5,a5,4 # 40000004 <_end+0x4>
 2c8:	fef42623          	sw	a5,-20(s0)
 2cc:	fec42703          	lw	a4,-20(s0)
 2d0:	410007b7          	lui	a5,0x41000
 2d4:	fcf76ce3          	bltu	a4,a5,2ac <test_sdram+0x110>
 2d8:	400007b7          	lui	a5,0x40000
 2dc:	fef42623          	sw	a5,-20(s0)
 2e0:	08c0006f          	j	36c <test_sdram+0x1d0>
 2e4:	fec42503          	lw	a0,-20(s0)
 2e8:	e85ff0ef          	jal	16c <read_mem>
 2ec:	fea42423          	sw	a0,-24(s0)
 2f0:	fec42783          	lw	a5,-20(s0)
 2f4:	fff7c793          	not	a5,a5
 2f8:	fe842703          	lw	a4,-24(s0)
 2fc:	06f70263          	beq	a4,a5,360 <test_sdram+0x1c4>
 300:	100007b7          	lui	a5,0x10000
 304:	03478513          	addi	a0,a5,52 # 10000034 <_stack_limit+0x2034>
 308:	d59ff0ef          	jal	60 <print_str>
 30c:	00800593          	li	a1,8
 310:	fec42503          	lw	a0,-20(s0)
 314:	da1ff0ef          	jal	b4 <print_hex>
 318:	100007b7          	lui	a5,0x10000
 31c:	04478513          	addi	a0,a5,68 # 10000044 <_stack_limit+0x2044>
 320:	d41ff0ef          	jal	60 <print_str>
 324:	fec42783          	lw	a5,-20(s0)
 328:	fff7c793          	not	a5,a5
 32c:	00800593          	li	a1,8
 330:	00078513          	mv	a0,a5
 334:	d81ff0ef          	jal	b4 <print_hex>
 338:	100007b7          	lui	a5,0x10000
 33c:	05078513          	addi	a0,a5,80 # 10000050 <_stack_limit+0x2050>
 340:	d21ff0ef          	jal	60 <print_str>
 344:	00800593          	li	a1,8
 348:	fe842503          	lw	a0,-24(s0)
 34c:	d69ff0ef          	jal	b4 <print_hex>
 350:	100007b7          	lui	a5,0x10000
 354:	06078513          	addi	a0,a5,96 # 10000060 <_stack_limit+0x2060>
 358:	d09ff0ef          	jal	60 <print_str>
 35c:	0340006f          	j	390 <test_sdram+0x1f4>
 360:	fec42783          	lw	a5,-20(s0)
 364:	00478793          	addi	a5,a5,4
 368:	fef42623          	sw	a5,-20(s0)
 36c:	fec42703          	lw	a4,-20(s0)
 370:	410007b7          	lui	a5,0x41000
 374:	f6f768e3          	bltu	a4,a5,2e4 <test_sdram+0x148>
 378:	100007b7          	lui	a5,0x10000
 37c:	0a878513          	addi	a0,a5,168 # 100000a8 <_stack_limit+0x20a8>
 380:	ce1ff0ef          	jal	60 <print_str>
 384:	100007b7          	lui	a5,0x10000
 388:	0b878513          	addi	a0,a5,184 # 100000b8 <_stack_limit+0x20b8>
 38c:	cd5ff0ef          	jal	60 <print_str>
 390:	01c12083          	lw	ra,28(sp)
 394:	01812403          	lw	s0,24(sp)
 398:	02010113          	addi	sp,sp,32
 39c:	00008067          	ret

000003a0 <main>:
 3a0:	ff010113          	addi	sp,sp,-16
 3a4:	00112623          	sw	ra,12(sp)
 3a8:	00812423          	sw	s0,8(sp)
 3ac:	01010413          	addi	s0,sp,16
 3b0:	100007b7          	lui	a5,0x10000
 3b4:	0d078513          	addi	a0,a5,208 # 100000d0 <_stack_limit+0x20d0>
 3b8:	ca9ff0ef          	jal	60 <print_str>
 3bc:	de1ff0ef          	jal	19c <test_sdram>
 3c0:	00000793          	li	a5,0
 3c4:	00078513          	mv	a0,a5
 3c8:	00c12083          	lw	ra,12(sp)
 3cc:	00812403          	lw	s0,8(sp)
 3d0:	01010113          	addi	sp,sp,16
 3d4:	00008067          	ret

Disassembly of section .rodata:

10000000 <_stack_limit+0x2000>:
10000000:	3130                	.insn	2, 0x3130
10000002:	3332                	.insn	2, 0x3332
10000004:	3534                	.insn	2, 0x3534
10000006:	3736                	.insn	2, 0x3736
10000008:	3938                	.insn	2, 0x3938
1000000a:	4241                	.insn	2, 0x4241
1000000c:	46454443          	.insn	4, 0x46454443
10000010:	0000                	.insn	2, 0x0000
10000012:	0000                	.insn	2, 0x0000
10000014:	6150                	.insn	2, 0x6150
10000016:	7474                	.insn	2, 0x7474
10000018:	7265                	.insn	2, 0x7265
1000001a:	206e                	.insn	2, 0x206e
1000001c:	3a31                	.insn	2, 0x3a31
1000001e:	7720                	.insn	2, 0x7720
10000020:	6972                	.insn	2, 0x6972
10000022:	6574                	.insn	2, 0x6574
10000024:	6120                	.insn	2, 0x6120
10000026:	6464                	.insn	2, 0x6464
10000028:	6572                	.insn	2, 0x6572
1000002a:	2e2e7373          	csrrci	t1,0x2e2,28
1000002e:	0d2e                	.insn	2, 0x0d2e
10000030:	000a                	.insn	2, 0x000a
10000032:	0000                	.insn	2, 0x0000
10000034:	7245                	.insn	2, 0x7245
10000036:	6f72                	.insn	2, 0x6f72
10000038:	2072                	.insn	2, 0x2072
1000003a:	7461                	.insn	2, 0x7461
1000003c:	6120                	.insn	2, 0x6120
1000003e:	6464                	.insn	2, 0x6464
10000040:	3d72                	.insn	2, 0x3d72
10000042:	0000                	.insn	2, 0x0000
10000044:	202c                	.insn	2, 0x202c
10000046:	7865                	.insn	2, 0x7865
10000048:	6570                	.insn	2, 0x6570
1000004a:	64657463          	bgeu	a0,t1,10000692 <_stack_limit+0x2692>
1000004e:	003d                	.insn	2, 0x003d
10000050:	202c                	.insn	2, 0x202c
10000052:	6361                	.insn	2, 0x6361
10000054:	7574                	.insn	2, 0x7574
10000056:	6c61                	.insn	2, 0x6c61
10000058:	003d                	.insn	2, 0x003d
1000005a:	0000                	.insn	2, 0x0000
1000005c:	0a0d                	.insn	2, 0x0a0d
1000005e:	0000                	.insn	2, 0x0000
10000060:	0a0d                	.insn	2, 0x0a0d
10000062:	41524453          	.insn	4, 0x41524453
10000066:	204d                	.insn	2, 0x204d
10000068:	6574                	.insn	2, 0x6574
1000006a:	46207473          	csrrci	s0,0x462,0
1000006e:	4941                	.insn	2, 0x4941
10000070:	454c                	.insn	2, 0x454c
10000072:	0d44                	.insn	2, 0x0d44
10000074:	000a                	.insn	2, 0x000a
10000076:	0000                	.insn	2, 0x0000
10000078:	6150                	.insn	2, 0x6150
1000007a:	7474                	.insn	2, 0x7474
1000007c:	7265                	.insn	2, 0x7265
1000007e:	206e                	.insn	2, 0x206e
10000080:	2031                	.insn	2, 0x2031
10000082:	0a0d4b4f          	.insn	4, 0x0a0d4b4f
10000086:	0000                	.insn	2, 0x0000
10000088:	6150                	.insn	2, 0x6150
1000008a:	7474                	.insn	2, 0x7474
1000008c:	7265                	.insn	2, 0x7265
1000008e:	206e                	.insn	2, 0x206e
10000090:	3a32                	.insn	2, 0x3a32
10000092:	7720                	.insn	2, 0x7720
10000094:	6972                	.insn	2, 0x6972
10000096:	6574                	.insn	2, 0x6574
10000098:	7e20                	.insn	2, 0x7e20
1000009a:	6461                	.insn	2, 0x6461
1000009c:	7264                	.insn	2, 0x7264
1000009e:	7365                	.insn	2, 0x7365
100000a0:	2e2e2e73          	csrrs	t3,0x2e2,t3
100000a4:	0a0d                	.insn	2, 0x0a0d
100000a6:	0000                	.insn	2, 0x0000
100000a8:	6150                	.insn	2, 0x6150
100000aa:	7474                	.insn	2, 0x7474
100000ac:	7265                	.insn	2, 0x7265
100000ae:	206e                	.insn	2, 0x206e
100000b0:	2032                	.insn	2, 0x2032
100000b2:	0a0d4b4f          	.insn	4, 0x0a0d4b4f
100000b6:	0000                	.insn	2, 0x0000
100000b8:	41524453          	.insn	4, 0x41524453
100000bc:	204d                	.insn	2, 0x204d
100000be:	4554                	.insn	2, 0x4554
100000c0:	50205453          	.insn	4, 0x50205453
100000c4:	5341                	.insn	2, 0x5341
100000c6:	2e444553          	.insn	4, 0x2e444553
100000ca:	0a0d                	.insn	2, 0x0a0d
100000cc:	0000                	.insn	2, 0x0000
100000ce:	0000                	.insn	2, 0x0000
100000d0:	41524453          	.insn	4, 0x41524453
100000d4:	204d                	.insn	2, 0x204d
100000d6:	6554                	.insn	2, 0x6554
100000d8:	53207473          	csrrci	s0,0x532,0
100000dc:	6174                	.insn	2, 0x6174
100000de:	7472                	.insn	2, 0x7472
100000e0:	0a0d                	.insn	2, 0x0a0d
	...

Disassembly of section .riscv.attributes:

00000000 <.riscv.attributes>:
   0:	3641                	.insn	2, 0x3641
   2:	0000                	.insn	2, 0x0000
   4:	7200                	.insn	2, 0x7200
   6:	7369                	.insn	2, 0x7369
   8:	01007663          	bgeu	zero,a6,14 <_start+0x14>
   c:	002c                	.insn	2, 0x002c
   e:	0000                	.insn	2, 0x0000
  10:	1004                	.insn	2, 0x1004
  12:	7205                	.insn	2, 0x7205
  14:	3376                	.insn	2, 0x3376
  16:	6932                	.insn	2, 0x6932
  18:	7032                	.insn	2, 0x7032
  1a:	5f31                	.insn	2, 0x5f31
  1c:	326d                	.insn	2, 0x326d
  1e:	3070                	.insn	2, 0x3070
  20:	7a5f 6369 7273      	.insn	6, 0x727363697a5f
  26:	7032                	.insn	2, 0x7032
  28:	5f30                	.insn	2, 0x5f30
  2a:	6d7a                	.insn	2, 0x6d7a
  2c:	756d                	.insn	2, 0x756d
  2e:	316c                	.insn	2, 0x316c
  30:	3070                	.insn	2, 0x3070
  32:	0800                	.insn	2, 0x0800
  34:	0a01                	.insn	2, 0x0a01
  36:	0b                	.byte	0x0b

Disassembly of section .comment:

00000000 <.comment>:
   0:	3a434347          	.insn	4, 0x3a434347
   4:	2820                	.insn	2, 0x2820
   6:	33623167          	.insn	4, 0x33623167
   a:	3630                	.insn	2, 0x3630
   c:	3330                	.insn	2, 0x3330
   e:	6139                	.insn	2, 0x6139
  10:	20293463          	.insn	4, 0x20293463
  14:	3531                	.insn	2, 0x3531
  16:	312e                	.insn	2, 0x312e
  18:	302e                	.insn	2, 0x302e
	...
