
/tmp/tmp.CM6rm78onL/timer.elf:     file format elf32-littleriscv


Disassembly of section .text:

00000000 <_start>:
   0:	10001137          	lui	sp,0x10001
   4:	ffc10113          	addi	sp,sp,-4 # 10000ffc <isr+0x10000fa8>
   8:	00000297          	auipc	t0,0x0
   c:	04c28293          	addi	t0,t0,76 # 54 <isr>
  10:	30529073          	csrw	mtvec,t0
  14:	00800313          	li	t1,8
  18:	30033073          	csrc	mstatus,t1
  1c:	00000393          	li	t2,0
  20:	30439073          	csrw	mie,t2
  24:	600002b7          	lui	t0,0x60000
  28:	0002a303          	lw	t1,0(t0) # 60000000 <isr+0x5fffffac>
  2c:	0042a383          	lw	t2,4(t0)
  30:	1f400e13          	li	t3,500
  34:	01c30333          	add	t1,t1,t3
  38:	0062a423          	sw	t1,8(t0)
  3c:	0072a623          	sw	t2,12(t0)
  40:	08000313          	li	t1,128
  44:	30431073          	csrw	mie,t1
  48:	00800313          	li	t1,8
  4c:	30032073          	csrs	mstatus,t1
  50:	0000006f          	j	50 <_start+0x50>

00000054 <isr>:
  54:	fec10113          	addi	sp,sp,-20
  58:	00a12023          	sw	a0,0(sp)
  5c:	00512223          	sw	t0,4(sp)
  60:	00612423          	sw	t1,8(sp)
  64:	00712623          	sw	t2,12(sp)
  68:	01c12823          	sw	t3,16(sp)
  6c:	12345537          	lui	a0,0x12345
  70:	67850513          	addi	a0,a0,1656 # 12345678 <isr+0x12345624>
  74:	600002b7          	lui	t0,0x60000
  78:	0002a303          	lw	t1,0(t0) # 60000000 <isr+0x5fffffac>
  7c:	0042a383          	lw	t2,4(t0)
  80:	1f400e13          	li	t3,500
  84:	01c30333          	add	t1,t1,t3
  88:	0062a423          	sw	t1,8(t0)
  8c:	0072a623          	sw	t2,12(t0)
  90:	00012503          	lw	a0,0(sp)
  94:	00412283          	lw	t0,4(sp)
  98:	00812303          	lw	t1,8(sp)
  9c:	00c12383          	lw	t2,12(sp)
  a0:	01012e03          	lw	t3,16(sp)
  a4:	01410113          	addi	sp,sp,20
  a8:	30200073          	mret
