
/tmp/tmp.Kz6e0q3Cyq/uart_tx.elf：     文件格式 elf32-littleriscv


Disassembly of section .text:

00000000 <_start>:
   0:	40008117          	auipc	sp,0x40008
   4:	00010113          	mv	sp,sp
   8:	300002b7          	lui	t0,0x30000
   c:	00028023          	sb	zero,0(t0) # 30000000 <STACK_TOP+0x2fff8000>
  10:	1f8000ef          	jal	208 <main>
  14:	01400293          	li	t0,20
  18:	fff28293          	addi	t0,t0,-1
  1c:	fe029ee3          	bnez	t0,18 <_start+0x18>
  20:	c0001073          	unimp
  24:	0000006f          	j	24 <_start+0x24>

00000028 <print_char>:
  28:	fe010113          	addi	sp,sp,-32 # 40007fe0 <_stack_limit+0x3fe0>
  2c:	00112e23          	sw	ra,28(sp)
  30:	00812c23          	sw	s0,24(sp)
  34:	02010413          	addi	s0,sp,32
  38:	00050793          	mv	a5,a0
  3c:	fef407a3          	sb	a5,-17(s0)
  40:	300007b7          	lui	a5,0x30000
  44:	fef44703          	lbu	a4,-17(s0)
  48:	00e78023          	sb	a4,0(a5) # 30000000 <STACK_TOP+0x2fff8000>
  4c:	00000013          	nop
  50:	01c12083          	lw	ra,28(sp)
  54:	01812403          	lw	s0,24(sp)
  58:	02010113          	addi	sp,sp,32
  5c:	00008067          	ret

00000060 <print_str>:
  60:	fe010113          	addi	sp,sp,-32
  64:	00112e23          	sw	ra,28(sp)
  68:	00812c23          	sw	s0,24(sp)
  6c:	02010413          	addi	s0,sp,32
  70:	fea42623          	sw	a0,-20(s0)
  74:	01c0006f          	j	90 <print_str+0x30>
  78:	fec42783          	lw	a5,-20(s0)
  7c:	00178713          	addi	a4,a5,1
  80:	fee42623          	sw	a4,-20(s0)
  84:	0007c783          	lbu	a5,0(a5)
  88:	00078513          	mv	a0,a5
  8c:	f9dff0ef          	jal	28 <print_char>
  90:	fec42783          	lw	a5,-20(s0)
  94:	0007c783          	lbu	a5,0(a5)
  98:	fe0790e3          	bnez	a5,78 <print_str+0x18>
  9c:	00000013          	nop
  a0:	00000013          	nop
  a4:	01c12083          	lw	ra,28(sp)
  a8:	01812403          	lw	s0,24(sp)
  ac:	02010113          	addi	sp,sp,32
  b0:	00008067          	ret

000000b4 <print_dec>:
  b4:	fd010113          	addi	sp,sp,-48
  b8:	02112623          	sw	ra,44(sp)
  bc:	02812423          	sw	s0,40(sp)
  c0:	03010413          	addi	s0,sp,48
  c4:	fca42e23          	sw	a0,-36(s0)
  c8:	3b9ad7b7          	lui	a5,0x3b9ad
  cc:	a0078793          	addi	a5,a5,-1536 # 3b9aca00 <STACK_TOP+0x3b9a4a00>
  d0:	fef42623          	sw	a5,-20(s0)
  d4:	fe042423          	sw	zero,-24(s0)
  d8:	fe042223          	sw	zero,-28(s0)
  dc:	0880006f          	j	164 <print_dec+0xb0>
  e0:	fdc42703          	lw	a4,-36(s0)
  e4:	fec42783          	lw	a5,-20(s0)
  e8:	02f757b3          	divu	a5,a4,a5
  ec:	fef42023          	sw	a5,-32(s0)
  f0:	fe042703          	lw	a4,-32(s0)
  f4:	fec42783          	lw	a5,-20(s0)
  f8:	02f707b3          	mul	a5,a4,a5
  fc:	fdc42703          	lw	a4,-36(s0)
 100:	40f707b3          	sub	a5,a4,a5
 104:	fcf42e23          	sw	a5,-36(s0)
 108:	fec42703          	lw	a4,-20(s0)
 10c:	ccccd7b7          	lui	a5,0xccccd
 110:	ccd78793          	addi	a5,a5,-819 # cccccccd <_stack_top+0x8ccc4ccd>
 114:	02f737b3          	mulhu	a5,a4,a5
 118:	0037d793          	srli	a5,a5,0x3
 11c:	fef42623          	sw	a5,-20(s0)
 120:	fe042783          	lw	a5,-32(s0)
 124:	00079a63          	bnez	a5,138 <print_dec+0x84>
 128:	fe842783          	lw	a5,-24(s0)
 12c:	00079663          	bnez	a5,138 <print_dec+0x84>
 130:	fec42783          	lw	a5,-20(s0)
 134:	02079263          	bnez	a5,158 <print_dec+0xa4>
 138:	fe042783          	lw	a5,-32(s0)
 13c:	0ff7f793          	zext.b	a5,a5
 140:	03078793          	addi	a5,a5,48
 144:	0ff7f793          	zext.b	a5,a5
 148:	00078513          	mv	a0,a5
 14c:	eddff0ef          	jal	28 <print_char>
 150:	00100793          	li	a5,1
 154:	fef42423          	sw	a5,-24(s0)
 158:	fe442783          	lw	a5,-28(s0)
 15c:	00178793          	addi	a5,a5,1
 160:	fef42223          	sw	a5,-28(s0)
 164:	fe442703          	lw	a4,-28(s0)
 168:	00900793          	li	a5,9
 16c:	f6e7dae3          	bge	a5,a4,e0 <print_dec+0x2c>
 170:	00000013          	nop
 174:	00000013          	nop
 178:	02c12083          	lw	ra,44(sp)
 17c:	02812403          	lw	s0,40(sp)
 180:	03010113          	addi	sp,sp,48
 184:	00008067          	ret

00000188 <print_hex>:
 188:	fd010113          	addi	sp,sp,-48
 18c:	02112623          	sw	ra,44(sp)
 190:	02812423          	sw	s0,40(sp)
 194:	03010413          	addi	s0,sp,48
 198:	fca42e23          	sw	a0,-36(s0)
 19c:	fcb42c23          	sw	a1,-40(s0)
 1a0:	fd842783          	lw	a5,-40(s0)
 1a4:	fff78793          	addi	a5,a5,-1
 1a8:	00279793          	slli	a5,a5,0x2
 1ac:	fef42623          	sw	a5,-20(s0)
 1b0:	0380006f          	j	1e8 <print_hex+0x60>
 1b4:	fec42783          	lw	a5,-20(s0)
 1b8:	fdc42703          	lw	a4,-36(s0)
 1bc:	00f757b3          	srl	a5,a4,a5
 1c0:	00f7f793          	andi	a5,a5,15
 1c4:	10000737          	lui	a4,0x10000
 1c8:	00070713          	mv	a4,a4
 1cc:	00f707b3          	add	a5,a4,a5
 1d0:	0007c783          	lbu	a5,0(a5)
 1d4:	00078513          	mv	a0,a5
 1d8:	e51ff0ef          	jal	28 <print_char>
 1dc:	fec42783          	lw	a5,-20(s0)
 1e0:	ffc78793          	addi	a5,a5,-4
 1e4:	fef42623          	sw	a5,-20(s0)
 1e8:	fec42783          	lw	a5,-20(s0)
 1ec:	fc07d4e3          	bgez	a5,1b4 <print_hex+0x2c>
 1f0:	00000013          	nop
 1f4:	00000013          	nop
 1f8:	02c12083          	lw	ra,44(sp)
 1fc:	02812403          	lw	s0,40(sp)
 200:	03010113          	addi	sp,sp,48
 204:	00008067          	ret

00000208 <main>:
 208:	ff010113          	addi	sp,sp,-16
 20c:	00112623          	sw	ra,12(sp)
 210:	00812423          	sw	s0,8(sp)
 214:	01010413          	addi	s0,sp,16
 218:	100007b7          	lui	a5,0x10000
 21c:	01478513          	addi	a0,a5,20 # 10000014 <STACK_TOP+0xfff8014>
 220:	e41ff0ef          	jal	60 <print_str>
 224:	7e900513          	li	a0,2025
 228:	e8dff0ef          	jal	b4 <print_dec>
 22c:	00a00513          	li	a0,10
 230:	df9ff0ef          	jal	28 <print_char>
 234:	00400593          	li	a1,4
 238:	0000b7b7          	lui	a5,0xb
 23c:	bcd78513          	addi	a0,a5,-1075 # abcd <STACK_TOP+0x2bcd>
 240:	f49ff0ef          	jal	188 <print_hex>
 244:	04500513          	li	a0,69
 248:	de1ff0ef          	jal	28 <print_char>
 24c:	00a00513          	li	a0,10
 250:	dd9ff0ef          	jal	28 <print_char>
 254:	00000793          	li	a5,0
 258:	00078513          	mv	a0,a5
 25c:	00c12083          	lw	ra,12(sp)
 260:	00812403          	lw	s0,8(sp)
 264:	01010113          	addi	sp,sp,16
 268:	00008067          	ret
